
Mainboard.elf:     file format elf32-avr

Sections:
Idx Name          Size      VMA       LMA       File off  Algn
  0 .text         00000f86  00000000  00000000  00000094  2**1
                  CONTENTS, ALLOC, LOAD, READONLY, CODE
  1 .data         0000055c  00802000  00000f86  0000101a  2**0
                  CONTENTS, ALLOC, LOAD, DATA
  2 .bss          00000002  0080255c  0080255c  00001576  2**0
                  ALLOC
  3 .comment      00000030  00000000  00000000  00001576  2**0
                  CONTENTS, READONLY
  4 .note.gnu.avr.deviceinfo 00000040  00000000  00000000  000015a8  2**2
                  CONTENTS, READONLY
  5 .debug_aranges 000000d0  00000000  00000000  000015e8  2**0
                  CONTENTS, READONLY, DEBUGGING
  6 .debug_info   00002979  00000000  00000000  000016b8  2**0
                  CONTENTS, READONLY, DEBUGGING
  7 .debug_abbrev 000003c2  00000000  00000000  00004031  2**0
                  CONTENTS, READONLY, DEBUGGING
  8 .debug_line   00000530  00000000  00000000  000043f3  2**0
                  CONTENTS, READONLY, DEBUGGING
  9 .debug_frame  0000037c  00000000  00000000  00004924  2**2
                  CONTENTS, READONLY, DEBUGGING
 10 .debug_str    000008f2  00000000  00000000  00004ca0  2**0
                  CONTENTS, READONLY, DEBUGGING
 11 .debug_loc    00001881  00000000  00000000  00005592  2**0
                  CONTENTS, READONLY, DEBUGGING
 12 .debug_ranges 000000f0  00000000  00000000  00006e13  2**0
                  CONTENTS, READONLY, DEBUGGING

Disassembly of section .text:

00000000 <__vectors>:
   0:	0c 94 12 01 	jmp	0x224	; 0x224 <__ctors_end>
   4:	0c 94 33 01 	jmp	0x266	; 0x266 <__bad_interrupt>
   8:	0c 94 33 01 	jmp	0x266	; 0x266 <__bad_interrupt>
   c:	0c 94 33 01 	jmp	0x266	; 0x266 <__bad_interrupt>
  10:	0c 94 33 01 	jmp	0x266	; 0x266 <__bad_interrupt>
  14:	0c 94 33 01 	jmp	0x266	; 0x266 <__bad_interrupt>
  18:	0c 94 33 01 	jmp	0x266	; 0x266 <__bad_interrupt>
  1c:	0c 94 33 01 	jmp	0x266	; 0x266 <__bad_interrupt>
  20:	0c 94 33 01 	jmp	0x266	; 0x266 <__bad_interrupt>
  24:	0c 94 33 01 	jmp	0x266	; 0x266 <__bad_interrupt>
  28:	0c 94 33 01 	jmp	0x266	; 0x266 <__bad_interrupt>
  2c:	0c 94 33 01 	jmp	0x266	; 0x266 <__bad_interrupt>
  30:	0c 94 33 01 	jmp	0x266	; 0x266 <__bad_interrupt>
  34:	0c 94 33 01 	jmp	0x266	; 0x266 <__bad_interrupt>
  38:	0c 94 33 01 	jmp	0x266	; 0x266 <__bad_interrupt>
  3c:	0c 94 33 01 	jmp	0x266	; 0x266 <__bad_interrupt>
  40:	0c 94 33 01 	jmp	0x266	; 0x266 <__bad_interrupt>
  44:	0c 94 33 01 	jmp	0x266	; 0x266 <__bad_interrupt>
  48:	0c 94 33 01 	jmp	0x266	; 0x266 <__bad_interrupt>
  4c:	0c 94 33 01 	jmp	0x266	; 0x266 <__bad_interrupt>
  50:	0c 94 33 01 	jmp	0x266	; 0x266 <__bad_interrupt>
  54:	0c 94 33 01 	jmp	0x266	; 0x266 <__bad_interrupt>
  58:	0c 94 33 01 	jmp	0x266	; 0x266 <__bad_interrupt>
  5c:	0c 94 33 01 	jmp	0x266	; 0x266 <__bad_interrupt>
  60:	0c 94 33 01 	jmp	0x266	; 0x266 <__bad_interrupt>
  64:	0c 94 33 01 	jmp	0x266	; 0x266 <__bad_interrupt>
  68:	0c 94 33 01 	jmp	0x266	; 0x266 <__bad_interrupt>
  6c:	0c 94 33 01 	jmp	0x266	; 0x266 <__bad_interrupt>
  70:	0c 94 33 01 	jmp	0x266	; 0x266 <__bad_interrupt>
  74:	0c 94 33 01 	jmp	0x266	; 0x266 <__bad_interrupt>
  78:	0c 94 33 01 	jmp	0x266	; 0x266 <__bad_interrupt>
  7c:	0c 94 33 01 	jmp	0x266	; 0x266 <__bad_interrupt>
  80:	0c 94 33 01 	jmp	0x266	; 0x266 <__bad_interrupt>
  84:	0c 94 33 01 	jmp	0x266	; 0x266 <__bad_interrupt>
  88:	0c 94 33 01 	jmp	0x266	; 0x266 <__bad_interrupt>
  8c:	0c 94 33 01 	jmp	0x266	; 0x266 <__bad_interrupt>
  90:	0c 94 33 01 	jmp	0x266	; 0x266 <__bad_interrupt>
  94:	0c 94 33 01 	jmp	0x266	; 0x266 <__bad_interrupt>
  98:	0c 94 33 01 	jmp	0x266	; 0x266 <__bad_interrupt>
  9c:	0c 94 33 01 	jmp	0x266	; 0x266 <__bad_interrupt>
  a0:	0c 94 33 01 	jmp	0x266	; 0x266 <__bad_interrupt>
  a4:	0c 94 33 01 	jmp	0x266	; 0x266 <__bad_interrupt>
  a8:	0c 94 33 01 	jmp	0x266	; 0x266 <__bad_interrupt>
  ac:	0c 94 33 01 	jmp	0x266	; 0x266 <__bad_interrupt>
  b0:	0c 94 33 01 	jmp	0x266	; 0x266 <__bad_interrupt>
  b4:	0c 94 33 01 	jmp	0x266	; 0x266 <__bad_interrupt>
  b8:	0c 94 33 01 	jmp	0x266	; 0x266 <__bad_interrupt>
  bc:	0c 94 33 01 	jmp	0x266	; 0x266 <__bad_interrupt>
  c0:	0c 94 33 01 	jmp	0x266	; 0x266 <__bad_interrupt>
  c4:	0c 94 33 01 	jmp	0x266	; 0x266 <__bad_interrupt>
  c8:	0c 94 33 01 	jmp	0x266	; 0x266 <__bad_interrupt>
  cc:	0c 94 33 01 	jmp	0x266	; 0x266 <__bad_interrupt>
  d0:	0c 94 33 01 	jmp	0x266	; 0x266 <__bad_interrupt>
  d4:	0c 94 33 01 	jmp	0x266	; 0x266 <__bad_interrupt>
  d8:	0c 94 33 01 	jmp	0x266	; 0x266 <__bad_interrupt>
  dc:	0c 94 33 01 	jmp	0x266	; 0x266 <__bad_interrupt>
  e0:	0c 94 33 01 	jmp	0x266	; 0x266 <__bad_interrupt>
  e4:	0c 94 33 01 	jmp	0x266	; 0x266 <__bad_interrupt>
  e8:	0c 94 33 01 	jmp	0x266	; 0x266 <__bad_interrupt>
  ec:	0c 94 33 01 	jmp	0x266	; 0x266 <__bad_interrupt>
  f0:	0c 94 33 01 	jmp	0x266	; 0x266 <__bad_interrupt>
  f4:	0c 94 33 01 	jmp	0x266	; 0x266 <__bad_interrupt>
  f8:	0c 94 33 01 	jmp	0x266	; 0x266 <__bad_interrupt>
  fc:	0c 94 33 01 	jmp	0x266	; 0x266 <__bad_interrupt>
 100:	0c 94 33 01 	jmp	0x266	; 0x266 <__bad_interrupt>
 104:	0c 94 33 01 	jmp	0x266	; 0x266 <__bad_interrupt>
 108:	0c 94 33 01 	jmp	0x266	; 0x266 <__bad_interrupt>
 10c:	0c 94 33 01 	jmp	0x266	; 0x266 <__bad_interrupt>
 110:	0c 94 33 01 	jmp	0x266	; 0x266 <__bad_interrupt>
 114:	0c 94 33 01 	jmp	0x266	; 0x266 <__bad_interrupt>
 118:	0c 94 33 01 	jmp	0x266	; 0x266 <__bad_interrupt>
 11c:	0c 94 33 01 	jmp	0x266	; 0x266 <__bad_interrupt>
 120:	0c 94 33 01 	jmp	0x266	; 0x266 <__bad_interrupt>
 124:	0c 94 33 01 	jmp	0x266	; 0x266 <__bad_interrupt>
 128:	0c 94 33 01 	jmp	0x266	; 0x266 <__bad_interrupt>
 12c:	0c 94 33 01 	jmp	0x266	; 0x266 <__bad_interrupt>
 130:	0c 94 33 01 	jmp	0x266	; 0x266 <__bad_interrupt>
 134:	0c 94 33 01 	jmp	0x266	; 0x266 <__bad_interrupt>
 138:	0c 94 33 01 	jmp	0x266	; 0x266 <__bad_interrupt>
 13c:	0c 94 33 01 	jmp	0x266	; 0x266 <__bad_interrupt>
 140:	0c 94 33 01 	jmp	0x266	; 0x266 <__bad_interrupt>
 144:	0c 94 33 01 	jmp	0x266	; 0x266 <__bad_interrupt>
 148:	0c 94 33 01 	jmp	0x266	; 0x266 <__bad_interrupt>
 14c:	0c 94 33 01 	jmp	0x266	; 0x266 <__bad_interrupt>
 150:	0c 94 33 01 	jmp	0x266	; 0x266 <__bad_interrupt>
 154:	0c 94 33 01 	jmp	0x266	; 0x266 <__bad_interrupt>
 158:	0c 94 33 01 	jmp	0x266	; 0x266 <__bad_interrupt>
 15c:	0c 94 33 01 	jmp	0x266	; 0x266 <__bad_interrupt>
 160:	0c 94 33 01 	jmp	0x266	; 0x266 <__bad_interrupt>
 164:	0c 94 33 01 	jmp	0x266	; 0x266 <__bad_interrupt>
 168:	0c 94 33 01 	jmp	0x266	; 0x266 <__bad_interrupt>
 16c:	0c 94 33 01 	jmp	0x266	; 0x266 <__bad_interrupt>
 170:	0c 94 33 01 	jmp	0x266	; 0x266 <__bad_interrupt>
 174:	0c 94 33 01 	jmp	0x266	; 0x266 <__bad_interrupt>
 178:	0c 94 33 01 	jmp	0x266	; 0x266 <__bad_interrupt>
 17c:	0c 94 33 01 	jmp	0x266	; 0x266 <__bad_interrupt>
 180:	0c 94 33 01 	jmp	0x266	; 0x266 <__bad_interrupt>
 184:	0c 94 33 01 	jmp	0x266	; 0x266 <__bad_interrupt>
 188:	0c 94 33 01 	jmp	0x266	; 0x266 <__bad_interrupt>
 18c:	0c 94 33 01 	jmp	0x266	; 0x266 <__bad_interrupt>
 190:	0c 94 33 01 	jmp	0x266	; 0x266 <__bad_interrupt>
 194:	0c 94 33 01 	jmp	0x266	; 0x266 <__bad_interrupt>
 198:	0c 94 33 01 	jmp	0x266	; 0x266 <__bad_interrupt>
 19c:	0c 94 33 01 	jmp	0x266	; 0x266 <__bad_interrupt>
 1a0:	0c 94 33 01 	jmp	0x266	; 0x266 <__bad_interrupt>
 1a4:	0c 94 33 01 	jmp	0x266	; 0x266 <__bad_interrupt>
 1a8:	0c 94 33 01 	jmp	0x266	; 0x266 <__bad_interrupt>
 1ac:	0c 94 33 01 	jmp	0x266	; 0x266 <__bad_interrupt>
 1b0:	0c 94 33 01 	jmp	0x266	; 0x266 <__bad_interrupt>
 1b4:	0c 94 33 01 	jmp	0x266	; 0x266 <__bad_interrupt>
 1b8:	0c 94 33 01 	jmp	0x266	; 0x266 <__bad_interrupt>
 1bc:	0c 94 33 01 	jmp	0x266	; 0x266 <__bad_interrupt>
 1c0:	0c 94 33 01 	jmp	0x266	; 0x266 <__bad_interrupt>
 1c4:	0c 94 33 01 	jmp	0x266	; 0x266 <__bad_interrupt>
 1c8:	0c 94 33 01 	jmp	0x266	; 0x266 <__bad_interrupt>
 1cc:	0c 94 33 01 	jmp	0x266	; 0x266 <__bad_interrupt>
 1d0:	0c 94 33 01 	jmp	0x266	; 0x266 <__bad_interrupt>
 1d4:	0c 94 33 01 	jmp	0x266	; 0x266 <__bad_interrupt>
 1d8:	0c 94 33 01 	jmp	0x266	; 0x266 <__bad_interrupt>
 1dc:	0c 94 33 01 	jmp	0x266	; 0x266 <__bad_interrupt>
 1e0:	0c 94 33 01 	jmp	0x266	; 0x266 <__bad_interrupt>
 1e4:	0c 94 33 01 	jmp	0x266	; 0x266 <__bad_interrupt>
 1e8:	0c 94 33 01 	jmp	0x266	; 0x266 <__bad_interrupt>
 1ec:	0c 94 33 01 	jmp	0x266	; 0x266 <__bad_interrupt>
 1f0:	0c 94 33 01 	jmp	0x266	; 0x266 <__bad_interrupt>
 1f4:	0c 94 33 01 	jmp	0x266	; 0x266 <__bad_interrupt>
 1f8:	0c 94 33 01 	jmp	0x266	; 0x266 <__bad_interrupt>
 1fc:	8e 07       	cpc	r24, r30
 1fe:	93 07       	cpc	r25, r19
 200:	98 07       	cpc	r25, r24
 202:	9d 07       	cpc	r25, r29
 204:	a2 07       	cpc	r26, r18
 206:	8e 07       	cpc	r24, r30
 208:	93 07       	cpc	r25, r19
 20a:	98 07       	cpc	r25, r24
 20c:	9d 07       	cpc	r25, r29
 20e:	a2 07       	cpc	r26, r18

00000210 <__trampolines_start>:
 210:	0c 94 a2 07 	jmp	0xf44	; 0xf44 <main+0x28a>
 214:	0c 94 93 07 	jmp	0xf26	; 0xf26 <main+0x26c>
 218:	0c 94 98 07 	jmp	0xf30	; 0xf30 <main+0x276>
 21c:	0c 94 8e 07 	jmp	0xf1c	; 0xf1c <main+0x262>
 220:	0c 94 9d 07 	jmp	0xf3a	; 0xf3a <main+0x280>

00000224 <__ctors_end>:
 224:	11 24       	eor	r1, r1
 226:	1f be       	out	0x3f, r1	; 63
 228:	cf ef       	ldi	r28, 0xFF	; 255
 22a:	cd bf       	out	0x3d, r28	; 61
 22c:	df e5       	ldi	r29, 0x5F	; 95
 22e:	de bf       	out	0x3e, r29	; 62
 230:	00 e0       	ldi	r16, 0x00	; 0
 232:	0c bf       	out	0x3c, r16	; 60

00000234 <__do_copy_data>:
 234:	15 e2       	ldi	r17, 0x25	; 37
 236:	a0 e0       	ldi	r26, 0x00	; 0
 238:	b0 e2       	ldi	r27, 0x20	; 32
 23a:	e6 e8       	ldi	r30, 0x86	; 134
 23c:	ff e0       	ldi	r31, 0x0F	; 15
 23e:	00 e0       	ldi	r16, 0x00	; 0
 240:	0b bf       	out	0x3b, r16	; 59
 242:	02 c0       	rjmp	.+4      	; 0x248 <__do_copy_data+0x14>
 244:	07 90       	elpm	r0, Z+
 246:	0d 92       	st	X+, r0
 248:	ac 35       	cpi	r26, 0x5C	; 92
 24a:	b1 07       	cpc	r27, r17
 24c:	d9 f7       	brne	.-10     	; 0x244 <__do_copy_data+0x10>

0000024e <__do_clear_bss>:
 24e:	25 e2       	ldi	r18, 0x25	; 37
 250:	ac e5       	ldi	r26, 0x5C	; 92
 252:	b5 e2       	ldi	r27, 0x25	; 37
 254:	01 c0       	rjmp	.+2      	; 0x258 <.do_clear_bss_start>

00000256 <.do_clear_bss_loop>:
 256:	1d 92       	st	X+, r1

00000258 <.do_clear_bss_start>:
 258:	ae 35       	cpi	r26, 0x5E	; 94
 25a:	b2 07       	cpc	r27, r18
 25c:	e1 f7       	brne	.-8      	; 0x256 <.do_clear_bss_loop>
 25e:	0e 94 5d 06 	call	0xcba	; 0xcba <main>
 262:	0c 94 c1 07 	jmp	0xf82	; 0xf82 <_exit>

00000266 <__bad_interrupt>:
 266:	0c 94 00 00 	jmp	0	; 0x0 <__vectors>

0000026a <_Z4initv>:
	}
}

void init(void) 
{
	OSC.CTRL = 0b00000010; // Enable internal 32MHz oscillator
 26a:	82 e0       	ldi	r24, 0x02	; 2
 26c:	80 93 50 00 	sts	0x0050, r24
	while((OSC.STATUS & 0b00000010) == 0); // Wait for the internal oscillator to stabilize	
 270:	e0 e5       	ldi	r30, 0x50	; 80
 272:	f0 e0       	ldi	r31, 0x00	; 0
 274:	81 81       	ldd	r24, Z+1	; 0x01
 276:	81 ff       	sbrs	r24, 1
 278:	fd cf       	rjmp	.-6      	; 0x274 <_Z4initv+0xa>
	CCP = 0xD8; // Remove code write lock
 27a:	88 ed       	ldi	r24, 0xD8	; 216
 27c:	84 bf       	out	0x34, r24	; 52
	CLK.PSCTRL = 0b00000000; // No external clock prescaler
 27e:	e0 e4       	ldi	r30, 0x40	; 64
 280:	f0 e0       	ldi	r31, 0x00	; 0
 282:	11 82       	std	Z+1, r1	; 0x01
	CCP = 0xD8; // Remove code write lock
 284:	84 bf       	out	0x34, r24	; 52
	CLK.CTRL = 0b00000001; // Internal 32MHz Oscillator
 286:	81 e0       	ldi	r24, 0x01	; 1
 288:	80 83       	st	Z, r24
	
	PORTA.DIR = 0b11111000; // A0, A1, and A2 are ADC inputs, rest outputs
 28a:	a0 e0       	ldi	r26, 0x00	; 0
 28c:	b6 e0       	ldi	r27, 0x06	; 6
 28e:	88 ef       	ldi	r24, 0xF8	; 248
 290:	8c 93       	st	X, r24
	ADCA.CTRLA = 0x00; // Enable the ADC on PORT A
 292:	e0 e0       	ldi	r30, 0x00	; 0
 294:	f2 e0       	ldi	r31, 0x02	; 2
 296:	10 82       	st	Z, r1
	ADCA.CTRLB = 0x00; // Disable ADC stuff
 298:	11 82       	std	Z+1, r1	; 0x01
	ADCA.REFCTRL = 0x00; // Disable the AREF pins
 29a:	12 82       	std	Z+2, r1	; 0x02
	PORTA.OUT = 0x00;
 29c:	14 96       	adiw	r26, 0x04	; 4
 29e:	1c 92       	st	X, r1
	
	PORTB.DIR = 0xFF; // All outputs (PB5 = D_C#, PB6 = WR#)
 2a0:	e0 e2       	ldi	r30, 0x20	; 32
 2a2:	f6 e0       	ldi	r31, 0x06	; 6
 2a4:	8f ef       	ldi	r24, 0xFF	; 255
 2a6:	80 83       	st	Z, r24
	ADCB.CTRLA = 0x00; // Disable the ADC on PORT B
 2a8:	a0 e4       	ldi	r26, 0x40	; 64
 2aa:	b2 e0       	ldi	r27, 0x02	; 2
 2ac:	1c 92       	st	X, r1
	ADCB.CTRLB = 0x00; // Disable ADC stuff
 2ae:	11 96       	adiw	r26, 0x01	; 1
 2b0:	1c 92       	st	X, r1
 2b2:	11 97       	sbiw	r26, 0x01	; 1
	ADCB.REFCTRL = 0x00; // Disable the AREF pins
 2b4:	12 96       	adiw	r26, 0x02	; 2
 2b6:	1c 92       	st	X, r1
	PORTB.PIN0CTRL = 0b00000000; // Totem Pole Configuration (BAT_DISC)
 2b8:	10 8a       	std	Z+16, r1	; 0x10
	PORTB.PIN1CTRL = 0b00000000; // Totem Pole Configuration (CHA_DISC)
 2ba:	11 8a       	std	Z+17, r1	; 0x11
	PORTB.PIN4CTRL = 0b00000000; // Totem Pole Configuration (CHB_DISC)
 2bc:	14 8a       	std	Z+20, r1	; 0x14
	PORTB.PIN5CTRL = 0b00000000; // Totem Pole Configuration (LCD D_C#)
 2be:	15 8a       	std	Z+21, r1	; 0x15
	PORTB.PIN6CTRL = 0b00000000; // Totem Pole Configuration (LCD WR#)
 2c0:	16 8a       	std	Z+22, r1	; 0x16
	PORTB.OUT = 0x00;
 2c2:	14 82       	std	Z+4, r1	; 0x04

	
	PORTC.DIR = 0x00; // All switch (x8) inputs
 2c4:	10 92 40 06 	sts	0x0640, r1
	PORTD.DIR = 0b10111011; // All outputs except RXD0 and RXD1
 2c8:	9b eb       	ldi	r25, 0xBB	; 187
 2ca:	90 93 60 06 	sts	0x0660, r25
	PORTE.DIR = 0b10111011; // All outputs except RXE0 and RXE1
 2ce:	90 93 80 06 	sts	0x0680, r25
	PORTF.DIR = 0xFF; // All LCD interface outputs (But reversed bit by bit)
 2d2:	e0 ea       	ldi	r30, 0xA0	; 160
 2d4:	f6 e0       	ldi	r31, 0x06	; 6
 2d6:	80 83       	st	Z, r24
	PORTF.OUT = 0x00;
 2d8:	14 82       	std	Z+4, r1	; 0x04
	#else
		//round up by default
		__ticks_dc = (uint32_t)(ceil(fabs(__tmp)));
	#endif

	__builtin_avr_delay_cycles(__ticks_dc);
 2da:	2f ef       	ldi	r18, 0xFF	; 255
 2dc:	87 ea       	ldi	r24, 0xA7	; 167
 2de:	91 e6       	ldi	r25, 0x61	; 97
 2e0:	21 50       	subi	r18, 0x01	; 1
 2e2:	80 40       	sbci	r24, 0x00	; 0
 2e4:	90 40       	sbci	r25, 0x00	; 0
 2e6:	e1 f7       	brne	.-8      	; 0x2e0 <_Z4initv+0x76>
 2e8:	00 c0       	rjmp	.+0      	; 0x2ea <_Z4initv+0x80>
 2ea:	00 00       	nop
 2ec:	08 95       	ret

000002ee <_Z9initUSARTv>:
	//USARTD0.CTRLA = 0x00; // Interrupts off
	//USARTD0.CTRLB = 0b00011000; // CLK2X = 0, Enable transmitter and receiver
	//USARTD0.CTRLC = 0b00000011; // Asynchronous, No parity, 1 stop bit, 8 data bits
	
	// Configure SPI interface and speeds etc for Module A USARTD1 @ 57600bps
	USARTD1.BAUDCTRLA = 0x22; // BSEL = 34
 2ee:	e0 eb       	ldi	r30, 0xB0	; 176
 2f0:	f9 e0       	ldi	r31, 0x09	; 9
 2f2:	22 e2       	ldi	r18, 0x22	; 34
 2f4:	26 83       	std	Z+6, r18	; 0x06
	USARTD1.BAUDCTRLB = 0x00; // BSCALE = 0
 2f6:	17 82       	std	Z+7, r1	; 0x07
	USARTD1.CTRLA = 0x00; // Interrupts off
 2f8:	13 82       	std	Z+3, r1	; 0x03
	USARTD1.CTRLB = 0b00011000; // CLK2X = 0, Enable transmitter and receiver
 2fa:	98 e1       	ldi	r25, 0x18	; 24
 2fc:	94 83       	std	Z+4, r25	; 0x04
	USARTD1.CTRLC = 0b00000011; // Asynchronous, No parity, 1 stop bit, 8 data bits	
 2fe:	83 e0       	ldi	r24, 0x03	; 3
 300:	85 83       	std	Z+5, r24	; 0x05
		
	// Configure SPI interface and speeds etc for Module B USARTE0 @ 57600bps
	USARTE0.BAUDCTRLA = 0x22; // BSEL = 34
 302:	e0 ea       	ldi	r30, 0xA0	; 160
 304:	fa e0       	ldi	r31, 0x0A	; 10
 306:	26 83       	std	Z+6, r18	; 0x06
	USARTE0.BAUDCTRLB = 0x00; // BSCALE = 0
 308:	17 82       	std	Z+7, r1	; 0x07
	USARTE0.CTRLA = 0x00; // Interrupts off
 30a:	13 82       	std	Z+3, r1	; 0x03
	USARTE0.CTRLB = 0b00011000; // CLK2X = 0, Enable transmitter and receiver
 30c:	94 83       	std	Z+4, r25	; 0x04
	USARTE0.CTRLC = 0b00000011; // Asynchronous, No parity, 1 stop bit, 8 data bits
 30e:	85 83       	std	Z+5, r24	; 0x05
	
	// Configure SPI interface and speeds etc for UI Controller USARTE1 @ 57600bps
	USARTE1.BAUDCTRLA = 0x22; // BSEL = 34
 310:	e0 eb       	ldi	r30, 0xB0	; 176
 312:	fa e0       	ldi	r31, 0x0A	; 10
 314:	26 83       	std	Z+6, r18	; 0x06
	USARTE1.BAUDCTRLB = 0x00; // BSCALE = 0
 316:	17 82       	std	Z+7, r1	; 0x07
	USARTE1.CTRLA = 0x00; // Interrupts off
 318:	13 82       	std	Z+3, r1	; 0x03
	USARTE1.CTRLB = 0b00011000; // CLK2X = 0, Enable transmitter and receiver
 31a:	94 83       	std	Z+4, r25	; 0x04
	USARTE1.CTRLC = 0b00000011; // Asynchronous, No parity, 1 stop bit, 8 data bits
 31c:	85 83       	std	Z+5, r24	; 0x05
 31e:	08 95       	ret

00000320 <_Z8sendCharci>:
	_delay_ms(50);
}

void sendChar(char cToSend, int chanNum)
{
	switch(chanNum)
 320:	61 30       	cpi	r22, 0x01	; 1
 322:	71 05       	cpc	r23, r1
 324:	99 f0       	breq	.+38     	; 0x34c <_Z8sendCharci+0x2c>
 326:	1c f4       	brge	.+6      	; 0x32e <_Z8sendCharci+0xe>
 328:	67 2b       	or	r22, r23
 32a:	41 f0       	breq	.+16     	; 0x33c <_Z8sendCharci+0x1c>
 32c:	08 95       	ret
 32e:	62 30       	cpi	r22, 0x02	; 2
 330:	71 05       	cpc	r23, r1
 332:	a1 f0       	breq	.+40     	; 0x35c <_Z8sendCharci+0x3c>
 334:	63 30       	cpi	r22, 0x03	; 3
 336:	71 05       	cpc	r23, r1
 338:	c9 f0       	breq	.+50     	; 0x36c <_Z8sendCharci+0x4c>
 33a:	08 95       	ret
	{
		case 0:
			while(!(USARTD0_STATUS & USART_DREIF_bm));
 33c:	e1 ea       	ldi	r30, 0xA1	; 161
 33e:	f9 e0       	ldi	r31, 0x09	; 9
 340:	90 81       	ld	r25, Z
 342:	95 ff       	sbrs	r25, 5
 344:	fd cf       	rjmp	.-6      	; 0x340 <_Z8sendCharci+0x20>
			USARTD0_DATA = cToSend;
 346:	80 93 a0 09 	sts	0x09A0, r24
			break;
 34a:	08 95       	ret
		case 1:
			while(!(USARTD1_STATUS & USART_DREIF_bm));
 34c:	e1 eb       	ldi	r30, 0xB1	; 177
 34e:	f9 e0       	ldi	r31, 0x09	; 9
 350:	90 81       	ld	r25, Z
 352:	95 ff       	sbrs	r25, 5
 354:	fd cf       	rjmp	.-6      	; 0x350 <_Z8sendCharci+0x30>
			USARTD1_DATA = cToSend;
 356:	80 93 b0 09 	sts	0x09B0, r24
			break;
 35a:	08 95       	ret
		
		case 2:
			while(!(USARTE0_STATUS & USART_DREIF_bm));
 35c:	e1 ea       	ldi	r30, 0xA1	; 161
 35e:	fa e0       	ldi	r31, 0x0A	; 10
 360:	90 81       	ld	r25, Z
 362:	95 ff       	sbrs	r25, 5
 364:	fd cf       	rjmp	.-6      	; 0x360 <_Z8sendCharci+0x40>
			USARTE0_DATA = cToSend;
 366:	80 93 a0 0a 	sts	0x0AA0, r24
			break;
 36a:	08 95       	ret
		case 3:
			while(!(USARTE1_STATUS & USART_DREIF_bm));
 36c:	e1 eb       	ldi	r30, 0xB1	; 177
 36e:	fa e0       	ldi	r31, 0x0A	; 10
 370:	90 81       	ld	r25, Z
 372:	95 ff       	sbrs	r25, 5
 374:	fd cf       	rjmp	.-6      	; 0x370 <_Z8sendCharci+0x50>
			USARTE1_DATA = cToSend;
 376:	80 93 b0 0a 	sts	0x0AB0, r24
 37a:	08 95       	ret

0000037c <_Z7getBytei>:
}

char getByte(int chanNum)
{
	char temp = 0x00;
	switch(chanNum)
 37c:	81 30       	cpi	r24, 0x01	; 1
 37e:	91 05       	cpc	r25, r1
 380:	91 f0       	breq	.+36     	; 0x3a6 <_Z7getBytei+0x2a>
 382:	1c f4       	brge	.+6      	; 0x38a <_Z7getBytei+0xe>
 384:	89 2b       	or	r24, r25
 386:	39 f0       	breq	.+14     	; 0x396 <_Z7getBytei+0x1a>
 388:	26 c0       	rjmp	.+76     	; 0x3d6 <_Z7getBytei+0x5a>
 38a:	82 30       	cpi	r24, 0x02	; 2
 38c:	91 05       	cpc	r25, r1
 38e:	99 f0       	breq	.+38     	; 0x3b6 <_Z7getBytei+0x3a>
 390:	03 97       	sbiw	r24, 0x03	; 3
 392:	c9 f0       	breq	.+50     	; 0x3c6 <_Z7getBytei+0x4a>
 394:	20 c0       	rjmp	.+64     	; 0x3d6 <_Z7getBytei+0x5a>
	{
		case 0:
			while(!(USARTD0_STATUS & USART_RXCIF_bm));
 396:	e1 ea       	ldi	r30, 0xA1	; 161
 398:	f9 e0       	ldi	r31, 0x09	; 9
 39a:	80 81       	ld	r24, Z
 39c:	88 23       	and	r24, r24
 39e:	ec f7       	brge	.-6      	; 0x39a <_Z7getBytei+0x1e>
			temp = USARTD0_DATA;
 3a0:	80 91 a0 09 	lds	r24, 0x09A0
			break;
 3a4:	08 95       	ret
		case 1:
			while(!(USARTD1_STATUS & USART_RXCIF_bm));
 3a6:	e1 eb       	ldi	r30, 0xB1	; 177
 3a8:	f9 e0       	ldi	r31, 0x09	; 9
 3aa:	80 81       	ld	r24, Z
 3ac:	88 23       	and	r24, r24
 3ae:	ec f7       	brge	.-6      	; 0x3aa <_Z7getBytei+0x2e>
			temp = USARTD1_DATA;
 3b0:	80 91 b0 09 	lds	r24, 0x09B0
			break;
 3b4:	08 95       	ret
		
		case 2:
			while(!(USARTE0_STATUS & USART_RXCIF_bm));
 3b6:	e1 ea       	ldi	r30, 0xA1	; 161
 3b8:	fa e0       	ldi	r31, 0x0A	; 10
 3ba:	80 81       	ld	r24, Z
 3bc:	88 23       	and	r24, r24
 3be:	ec f7       	brge	.-6      	; 0x3ba <_Z7getBytei+0x3e>
			temp = USARTE0_DATA;
 3c0:	80 91 a0 0a 	lds	r24, 0x0AA0
			break;
 3c4:	08 95       	ret
		case 3:
			while(!(USARTE1_STATUS & USART_RXCIF_bm));
 3c6:	e1 eb       	ldi	r30, 0xB1	; 177
 3c8:	fa e0       	ldi	r31, 0x0A	; 10
 3ca:	80 81       	ld	r24, Z
 3cc:	88 23       	and	r24, r24
 3ce:	ec f7       	brge	.-6      	; 0x3ca <_Z7getBytei+0x4e>
			temp = USARTE1_DATA;
 3d0:	80 91 b0 0a 	lds	r24, 0x0AB0
			break;
 3d4:	08 95       	ret
	sendChar(*sToSend++, chanNum);
}

char getByte(int chanNum)
{
	char temp = 0x00;
 3d6:	80 e0       	ldi	r24, 0x00	; 0
			break;
		default:
			break;
	}
	return temp;
}
 3d8:	08 95       	ret

000003da <_Z8xmitDATAh>:
}


void xmitDATA(unsigned char dataByte)
{
	PORTB.OUTSET = 0b00100000; // D/C# high for data
 3da:	e0 e2       	ldi	r30, 0x20	; 32
 3dc:	f6 e0       	ldi	r31, 0x06	; 6
 3de:	90 e2       	ldi	r25, 0x20	; 32
 3e0:	95 83       	std	Z+5, r25	; 0x05
	PORTF.OUT = dataByte;
 3e2:	80 93 a4 06 	sts	0x06A4, r24
	//lcdDelay(1);
	PORTB.OUTCLR = 0b01000000; // WR goes low
 3e6:	80 e4       	ldi	r24, 0x40	; 64
 3e8:	86 83       	std	Z+6, r24	; 0x06
	//lcdDelay(1);
	PORTB.OUTSET = 0b01000000; // WR goes high
 3ea:	85 83       	std	Z+5, r24	; 0x05
 3ec:	08 95       	ret

000003ee <_Z12getCharIndexh>:
		xmitDATA(colorL);
	}
}

int getCharIndex(unsigned char c) {
	int c_val = (int)(c);
 3ee:	28 2f       	mov	r18, r24
 3f0:	30 e0       	ldi	r19, 0x00	; 0
	if (c >= 'A' && c <= 'Z') c_val -= ('A' - 10);
 3f2:	9f eb       	ldi	r25, 0xBF	; 191
 3f4:	98 0f       	add	r25, r24
 3f6:	9a 31       	cpi	r25, 0x1A	; 26
 3f8:	18 f4       	brcc	.+6      	; 0x400 <_Z12getCharIndexh+0x12>
 3fa:	27 53       	subi	r18, 0x37	; 55
 3fc:	31 09       	sbc	r19, r1
 3fe:	0b c0       	rjmp	.+22     	; 0x416 <_Z12getCharIndexh+0x28>
	else if (c >= '0' && c <= '9') c_val -= '0';
 400:	90 ed       	ldi	r25, 0xD0	; 208
 402:	98 0f       	add	r25, r24
 404:	9a 30       	cpi	r25, 0x0A	; 10
 406:	18 f4       	brcc	.+6      	; 0x40e <_Z12getCharIndexh+0x20>
 408:	20 53       	subi	r18, 0x30	; 48
 40a:	31 09       	sbc	r19, r1
 40c:	04 c0       	rjmp	.+8      	; 0x416 <_Z12getCharIndexh+0x28>
	else if (c == ' ') c_val = 40;
 40e:	80 32       	cpi	r24, 0x20	; 32
 410:	11 f4       	brne	.+4      	; 0x416 <_Z12getCharIndexh+0x28>
 412:	28 e2       	ldi	r18, 0x28	; 40
 414:	30 e0       	ldi	r19, 0x00	; 0
	return c_val;
}
 416:	c9 01       	movw	r24, r18
 418:	08 95       	ret

0000041a <_Z8lcdDelayh>:
	}
}
 
void lcdDelay(unsigned char lcdDel)
{
	for(unsigned char i = 0; i < lcdDel; i++)
 41a:	88 23       	and	r24, r24
 41c:	29 f0       	breq	.+10     	; 0x428 <_Z8lcdDelayh+0xe>
 41e:	90 e0       	ldi	r25, 0x00	; 0
		asm("NOP");
 420:	00 00       	nop
	}
}
 
void lcdDelay(unsigned char lcdDel)
{
	for(unsigned char i = 0; i < lcdDel; i++)
 422:	9f 5f       	subi	r25, 0xFF	; 255
 424:	98 13       	cpse	r25, r24
 426:	fc cf       	rjmp	.-8      	; 0x420 <_Z8lcdDelayh+0x6>
 428:	08 95       	ret

0000042a <_Z7xmitCMDh>:
	PORTB.OUTSET = 0b01000000; // WR goes high
	//lcdDelay(1);
}

void xmitCMD(unsigned char cmdByte)
{
 42a:	cf 93       	push	r28
 42c:	df 93       	push	r29
	PORTB.OUTCLR = 0b00100000; // D/C# low for command
 42e:	c0 e2       	ldi	r28, 0x20	; 32
 430:	d6 e0       	ldi	r29, 0x06	; 6
 432:	90 e2       	ldi	r25, 0x20	; 32
 434:	9e 83       	std	Y+6, r25	; 0x06
	PORTF.OUT = cmdByte;
 436:	80 93 a4 06 	sts	0x06A4, r24
	lcdDelay(10);
 43a:	8a e0       	ldi	r24, 0x0A	; 10
 43c:	0e 94 0d 02 	call	0x41a	; 0x41a <_Z8lcdDelayh>
	PORTB.OUTCLR = 0b01000000; // WR goes low
 440:	80 e4       	ldi	r24, 0x40	; 64
 442:	8e 83       	std	Y+6, r24	; 0x06
	//lcdDelay(1);
	PORTB.OUTSET = 0b01000000; // WR goes high
 444:	8d 83       	std	Y+5, r24	; 0x05
	//lcdDelay(1);
}
 446:	df 91       	pop	r29
 448:	cf 91       	pop	r28
 44a:	08 95       	ret

0000044c <_Z7initLCDv>:
	USARTE1.CTRLC = 0b00000011; // Asynchronous, No parity, 1 stop bit, 8 data bits
}

void initLCD(void)
{
	xmitCMD(0x28); // Turn display off
 44c:	88 e2       	ldi	r24, 0x28	; 40
 44e:	0e 94 15 02 	call	0x42a	; 0x42a <_Z7xmitCMDh>
	xmitCMD(0x11); // Exit sleep mode	
 452:	81 e1       	ldi	r24, 0x11	; 17
 454:	0e 94 15 02 	call	0x42a	; 0x42a <_Z7xmitCMDh>
	
	xmitCMD(0x36); // Memory access control
 458:	86 e3       	ldi	r24, 0x36	; 54
 45a:	0e 94 15 02 	call	0x42a	; 0x42a <_Z7xmitCMDh>
	xmitDATA(0x80); // Bottom to top, left to right, rest default
 45e:	80 e8       	ldi	r24, 0x80	; 128
 460:	0e 94 ed 01 	call	0x3da	; 0x3da <_Z8xmitDATAh>
	xmitCMD(0x3A); // Interface Pixel Format
 464:	8a e3       	ldi	r24, 0x3A	; 58
 466:	0e 94 15 02 	call	0x42a	; 0x42a <_Z7xmitCMDh>
	xmitDATA(0x55); // 65K RGB color format, 16 bits per pixel
 46a:	85 e5       	ldi	r24, 0x55	; 85
 46c:	0e 94 ed 01 	call	0x3da	; 0x3da <_Z8xmitDATAh>
	
	xmitCMD(0xB2); // Porch control
 470:	82 eb       	ldi	r24, 0xB2	; 178
 472:	0e 94 15 02 	call	0x42a	; 0x42a <_Z7xmitCMDh>
	xmitDATA(0x0C); //
 476:	8c e0       	ldi	r24, 0x0C	; 12
 478:	0e 94 ed 01 	call	0x3da	; 0x3da <_Z8xmitDATAh>
	xmitDATA(0x0C); //
 47c:	8c e0       	ldi	r24, 0x0C	; 12
 47e:	0e 94 ed 01 	call	0x3da	; 0x3da <_Z8xmitDATAh>
	xmitDATA(0x00); //
 482:	80 e0       	ldi	r24, 0x00	; 0
 484:	0e 94 ed 01 	call	0x3da	; 0x3da <_Z8xmitDATAh>
	xmitDATA(0x33); //
 488:	83 e3       	ldi	r24, 0x33	; 51
 48a:	0e 94 ed 01 	call	0x3da	; 0x3da <_Z8xmitDATAh>
	xmitDATA(0x33); //
 48e:	83 e3       	ldi	r24, 0x33	; 51
 490:	0e 94 ed 01 	call	0x3da	; 0x3da <_Z8xmitDATAh>

	xmitCMD(0xB7); // Gate Control
 494:	87 eb       	ldi	r24, 0xB7	; 183
 496:	0e 94 15 02 	call	0x42a	; 0x42a <_Z7xmitCMDh>
	xmitDATA(0x35); //
 49a:	85 e3       	ldi	r24, 0x35	; 53
 49c:	0e 94 ed 01 	call	0x3da	; 0x3da <_Z8xmitDATAh>

	xmitCMD(0xBB); // VCOM Control
 4a0:	8b eb       	ldi	r24, 0xBB	; 187
 4a2:	0e 94 15 02 	call	0x42a	; 0x42a <_Z7xmitCMDh>
	xmitDATA(0x2B); //
 4a6:	8b e2       	ldi	r24, 0x2B	; 43
 4a8:	0e 94 ed 01 	call	0x3da	; 0x3da <_Z8xmitDATAh>

	xmitCMD(0xC0); // LCM Control
 4ac:	80 ec       	ldi	r24, 0xC0	; 192
 4ae:	0e 94 15 02 	call	0x42a	; 0x42a <_Z7xmitCMDh>
	xmitDATA(0x2C); //
 4b2:	8c e2       	ldi	r24, 0x2C	; 44
 4b4:	0e 94 ed 01 	call	0x3da	; 0x3da <_Z8xmitDATAh>

	xmitCMD(0xC2); // VDV and VRH Command Enable
 4b8:	82 ec       	ldi	r24, 0xC2	; 194
 4ba:	0e 94 15 02 	call	0x42a	; 0x42a <_Z7xmitCMDh>
	xmitDATA(0x01); //
 4be:	81 e0       	ldi	r24, 0x01	; 1
 4c0:	0e 94 ed 01 	call	0x3da	; 0x3da <_Z8xmitDATAh>
	xmitDATA(0xFF); //
 4c4:	8f ef       	ldi	r24, 0xFF	; 255
 4c6:	0e 94 ed 01 	call	0x3da	; 0x3da <_Z8xmitDATAh>
	
	xmitCMD(0xC3); // VRH Set
 4ca:	83 ec       	ldi	r24, 0xC3	; 195
 4cc:	0e 94 15 02 	call	0x42a	; 0x42a <_Z7xmitCMDh>
	xmitDATA(0x11); //
 4d0:	81 e1       	ldi	r24, 0x11	; 17
 4d2:	0e 94 ed 01 	call	0x3da	; 0x3da <_Z8xmitDATAh>
	
	xmitCMD(0xC4); // VDV Control
 4d6:	84 ec       	ldi	r24, 0xC4	; 196
 4d8:	0e 94 15 02 	call	0x42a	; 0x42a <_Z7xmitCMDh>
	xmitDATA(0x20); //
 4dc:	80 e2       	ldi	r24, 0x20	; 32
 4de:	0e 94 ed 01 	call	0x3da	; 0x3da <_Z8xmitDATAh>
	
	xmitCMD(0xC6); // Frame rate control in normal mode
 4e2:	86 ec       	ldi	r24, 0xC6	; 198
 4e4:	0e 94 15 02 	call	0x42a	; 0x42a <_Z7xmitCMDh>
	xmitDATA(0x0F); //
 4e8:	8f e0       	ldi	r24, 0x0F	; 15
 4ea:	0e 94 ed 01 	call	0x3da	; 0x3da <_Z8xmitDATAh>

	xmitCMD(0xD0); // Power Control 1
 4ee:	80 ed       	ldi	r24, 0xD0	; 208
 4f0:	0e 94 15 02 	call	0x42a	; 0x42a <_Z7xmitCMDh>
	xmitDATA(0xA4); //
 4f4:	84 ea       	ldi	r24, 0xA4	; 164
 4f6:	0e 94 ed 01 	call	0x3da	; 0x3da <_Z8xmitDATAh>
	xmitDATA(0xA1); //
 4fa:	81 ea       	ldi	r24, 0xA1	; 161
 4fc:	0e 94 ed 01 	call	0x3da	; 0x3da <_Z8xmitDATAh>
	
	xmitCMD(0xE0); // Positive Voltage Gamma Control
 500:	80 ee       	ldi	r24, 0xE0	; 224
 502:	0e 94 15 02 	call	0x42a	; 0x42a <_Z7xmitCMDh>
	xmitDATA(0xD0); //
 506:	80 ed       	ldi	r24, 0xD0	; 208
 508:	0e 94 ed 01 	call	0x3da	; 0x3da <_Z8xmitDATAh>
	xmitDATA(0x00); //
 50c:	80 e0       	ldi	r24, 0x00	; 0
 50e:	0e 94 ed 01 	call	0x3da	; 0x3da <_Z8xmitDATAh>
	xmitDATA(0x05); //
 512:	85 e0       	ldi	r24, 0x05	; 5
 514:	0e 94 ed 01 	call	0x3da	; 0x3da <_Z8xmitDATAh>
	xmitDATA(0x0E); //
 518:	8e e0       	ldi	r24, 0x0E	; 14
 51a:	0e 94 ed 01 	call	0x3da	; 0x3da <_Z8xmitDATAh>
	xmitDATA(0x15); //
 51e:	85 e1       	ldi	r24, 0x15	; 21
 520:	0e 94 ed 01 	call	0x3da	; 0x3da <_Z8xmitDATAh>
	xmitDATA(0x0D); //
 524:	8d e0       	ldi	r24, 0x0D	; 13
 526:	0e 94 ed 01 	call	0x3da	; 0x3da <_Z8xmitDATAh>
	xmitDATA(0x37); //
 52a:	87 e3       	ldi	r24, 0x37	; 55
 52c:	0e 94 ed 01 	call	0x3da	; 0x3da <_Z8xmitDATAh>
	xmitDATA(0x43); //
 530:	83 e4       	ldi	r24, 0x43	; 67
 532:	0e 94 ed 01 	call	0x3da	; 0x3da <_Z8xmitDATAh>
	xmitDATA(0x47); //
 536:	87 e4       	ldi	r24, 0x47	; 71
 538:	0e 94 ed 01 	call	0x3da	; 0x3da <_Z8xmitDATAh>
	xmitDATA(0x09); //
 53c:	89 e0       	ldi	r24, 0x09	; 9
 53e:	0e 94 ed 01 	call	0x3da	; 0x3da <_Z8xmitDATAh>
	xmitDATA(0x15); //
 542:	85 e1       	ldi	r24, 0x15	; 21
 544:	0e 94 ed 01 	call	0x3da	; 0x3da <_Z8xmitDATAh>
	xmitDATA(0x12); //
 548:	82 e1       	ldi	r24, 0x12	; 18
 54a:	0e 94 ed 01 	call	0x3da	; 0x3da <_Z8xmitDATAh>
	xmitDATA(0x16); //
 54e:	86 e1       	ldi	r24, 0x16	; 22
 550:	0e 94 ed 01 	call	0x3da	; 0x3da <_Z8xmitDATAh>
	xmitDATA(0x19); //
 554:	89 e1       	ldi	r24, 0x19	; 25
 556:	0e 94 ed 01 	call	0x3da	; 0x3da <_Z8xmitDATAh>

	xmitCMD(0xE1); // Negative Voltage Gamma Control
 55a:	81 ee       	ldi	r24, 0xE1	; 225
 55c:	0e 94 15 02 	call	0x42a	; 0x42a <_Z7xmitCMDh>
	xmitDATA(0xD0); //
 560:	80 ed       	ldi	r24, 0xD0	; 208
 562:	0e 94 ed 01 	call	0x3da	; 0x3da <_Z8xmitDATAh>
	xmitDATA(0x00); //
 566:	80 e0       	ldi	r24, 0x00	; 0
 568:	0e 94 ed 01 	call	0x3da	; 0x3da <_Z8xmitDATAh>
	xmitDATA(0x05); //
 56c:	85 e0       	ldi	r24, 0x05	; 5
 56e:	0e 94 ed 01 	call	0x3da	; 0x3da <_Z8xmitDATAh>
	xmitDATA(0x0D); //
 572:	8d e0       	ldi	r24, 0x0D	; 13
 574:	0e 94 ed 01 	call	0x3da	; 0x3da <_Z8xmitDATAh>
	xmitDATA(0x0C); //
 578:	8c e0       	ldi	r24, 0x0C	; 12
 57a:	0e 94 ed 01 	call	0x3da	; 0x3da <_Z8xmitDATAh>
	xmitDATA(0x06); //
 57e:	86 e0       	ldi	r24, 0x06	; 6
 580:	0e 94 ed 01 	call	0x3da	; 0x3da <_Z8xmitDATAh>
	xmitDATA(0x2D); //
 584:	8d e2       	ldi	r24, 0x2D	; 45
 586:	0e 94 ed 01 	call	0x3da	; 0x3da <_Z8xmitDATAh>
	xmitDATA(0x44); //
 58a:	84 e4       	ldi	r24, 0x44	; 68
 58c:	0e 94 ed 01 	call	0x3da	; 0x3da <_Z8xmitDATAh>
	xmitDATA(0x40); //
 590:	80 e4       	ldi	r24, 0x40	; 64
 592:	0e 94 ed 01 	call	0x3da	; 0x3da <_Z8xmitDATAh>
	xmitDATA(0x0E); //
 596:	8e e0       	ldi	r24, 0x0E	; 14
 598:	0e 94 ed 01 	call	0x3da	; 0x3da <_Z8xmitDATAh>
	xmitDATA(0x1C); //
 59c:	8c e1       	ldi	r24, 0x1C	; 28
 59e:	0e 94 ed 01 	call	0x3da	; 0x3da <_Z8xmitDATAh>
	xmitDATA(0x18); //
 5a2:	88 e1       	ldi	r24, 0x18	; 24
 5a4:	0e 94 ed 01 	call	0x3da	; 0x3da <_Z8xmitDATAh>
	xmitDATA(0x16); //
 5a8:	86 e1       	ldi	r24, 0x16	; 22
 5aa:	0e 94 ed 01 	call	0x3da	; 0x3da <_Z8xmitDATAh>
	xmitDATA(0x19); //
 5ae:	89 e1       	ldi	r24, 0x19	; 25
 5b0:	0e 94 ed 01 	call	0x3da	; 0x3da <_Z8xmitDATAh>

	xmitCMD(0x2A); // X Address Set
 5b4:	8a e2       	ldi	r24, 0x2A	; 42
 5b6:	0e 94 15 02 	call	0x42a	; 0x42a <_Z7xmitCMDh>
	xmitDATA(0x00); //
 5ba:	80 e0       	ldi	r24, 0x00	; 0
 5bc:	0e 94 ed 01 	call	0x3da	; 0x3da <_Z8xmitDATAh>
	xmitDATA(0x00); // Start 0
 5c0:	80 e0       	ldi	r24, 0x00	; 0
 5c2:	0e 94 ed 01 	call	0x3da	; 0x3da <_Z8xmitDATAh>
	xmitDATA(0x00); //
 5c6:	80 e0       	ldi	r24, 0x00	; 0
 5c8:	0e 94 ed 01 	call	0x3da	; 0x3da <_Z8xmitDATAh>
	xmitDATA(0xEF); // Finish 239
 5cc:	8f ee       	ldi	r24, 0xEF	; 239
 5ce:	0e 94 ed 01 	call	0x3da	; 0x3da <_Z8xmitDATAh>
	
	xmitCMD(0x2B); // Y Address Set
 5d2:	8b e2       	ldi	r24, 0x2B	; 43
 5d4:	0e 94 15 02 	call	0x42a	; 0x42a <_Z7xmitCMDh>
	xmitDATA(0x00); //
 5d8:	80 e0       	ldi	r24, 0x00	; 0
 5da:	0e 94 ed 01 	call	0x3da	; 0x3da <_Z8xmitDATAh>
	xmitDATA(0x00); // Start 0
 5de:	80 e0       	ldi	r24, 0x00	; 0
 5e0:	0e 94 ed 01 	call	0x3da	; 0x3da <_Z8xmitDATAh>
	xmitDATA(0x01); //
 5e4:	81 e0       	ldi	r24, 0x01	; 1
 5e6:	0e 94 ed 01 	call	0x3da	; 0x3da <_Z8xmitDATAh>
	xmitDATA(0x3F); // Finish 319
 5ea:	8f e3       	ldi	r24, 0x3F	; 63
 5ec:	0e 94 ed 01 	call	0x3da	; 0x3da <_Z8xmitDATAh>

	xmitCMD(0x29); // Turn display on
 5f0:	89 e2       	ldi	r24, 0x29	; 41
 5f2:	0e 94 15 02 	call	0x42a	; 0x42a <_Z7xmitCMDh>
 5f6:	2f ef       	ldi	r18, 0xFF	; 255
 5f8:	81 ee       	ldi	r24, 0xE1	; 225
 5fa:	94 e0       	ldi	r25, 0x04	; 4
 5fc:	21 50       	subi	r18, 0x01	; 1
 5fe:	80 40       	sbci	r24, 0x00	; 0
 600:	90 40       	sbci	r25, 0x00	; 0
 602:	e1 f7       	brne	.-8      	; 0x5fc <_Z7initLCDv+0x1b0>
 604:	00 c0       	rjmp	.+0      	; 0x606 <_Z7initLCDv+0x1ba>
 606:	00 00       	nop
 608:	08 95       	ret

0000060a <_Z9xmitHLinessss>:
	PORTB.OUTSET = 0b01000000; // WR goes high
	//lcdDelay(1);
}

void xmitHLine(short int xPos, short int yPos, short int length, short int color)
{
 60a:	cf 92       	push	r12
 60c:	df 92       	push	r13
 60e:	ef 92       	push	r14
 610:	ff 92       	push	r15
 612:	0f 93       	push	r16
 614:	1f 93       	push	r17
 616:	cf 93       	push	r28
 618:	df 93       	push	r29
 61a:	ec 01       	movw	r28, r24
 61c:	d6 2e       	mov	r13, r22
 61e:	8a 01       	movw	r16, r20
	unsigned char colorH = (unsigned char)(color >> 8);
 620:	f3 2e       	mov	r15, r19
	unsigned char colorL = (unsigned char)(color & 0x00FF);
 622:	e2 2e       	mov	r14, r18
	
	unsigned char xStartH = (unsigned char)(xPos >> 8);
	unsigned char xStartL = (unsigned char)(xPos & 0x00FF);
	unsigned char xEndH = (unsigned char)((xPos + length) >> 8);
	unsigned char xEndL = (unsigned char)((xPos + length) & 0x00FF);
 624:	c8 2e       	mov	r12, r24
 626:	c4 0e       	add	r12, r20
	unsigned char yStart = (unsigned char)yPos;
	unsigned char yEnd = yStart;
		
	xmitCMD(0x36); // Memory access control
 628:	86 e3       	ldi	r24, 0x36	; 54
 62a:	0e 94 15 02 	call	0x42a	; 0x42a <_Z7xmitCMDh>
	xmitDATA(0x80); // Bottom to top, left to right, rest default
 62e:	80 e8       	ldi	r24, 0x80	; 128
 630:	0e 94 ed 01 	call	0x3da	; 0x3da <_Z8xmitDATAh>
		
	xmitCMD(0x2A); // X Address Set
 634:	8a e2       	ldi	r24, 0x2A	; 42
 636:	0e 94 15 02 	call	0x42a	; 0x42a <_Z7xmitCMDh>
	xmitDATA(0x00); //
 63a:	80 e0       	ldi	r24, 0x00	; 0
 63c:	0e 94 ed 01 	call	0x3da	; 0x3da <_Z8xmitDATAh>
	xmitDATA(yStart); // Start 0
 640:	8d 2d       	mov	r24, r13
 642:	0e 94 ed 01 	call	0x3da	; 0x3da <_Z8xmitDATAh>
	xmitDATA(0x00); //
 646:	80 e0       	ldi	r24, 0x00	; 0
 648:	0e 94 ed 01 	call	0x3da	; 0x3da <_Z8xmitDATAh>
	xmitDATA(yEnd); // Finish 239
 64c:	8d 2d       	mov	r24, r13
 64e:	0e 94 ed 01 	call	0x3da	; 0x3da <_Z8xmitDATAh>
		
	xmitCMD(0x2B); // Y Address Set
 652:	8b e2       	ldi	r24, 0x2B	; 43
 654:	0e 94 15 02 	call	0x42a	; 0x42a <_Z7xmitCMDh>
	xmitDATA(xStartH); //
 658:	8d 2f       	mov	r24, r29
 65a:	0e 94 ed 01 	call	0x3da	; 0x3da <_Z8xmitDATAh>
	xmitDATA(xStartL); // Start 0
 65e:	8c 2f       	mov	r24, r28
 660:	0e 94 ed 01 	call	0x3da	; 0x3da <_Z8xmitDATAh>
	unsigned char colorH = (unsigned char)(color >> 8);
	unsigned char colorL = (unsigned char)(color & 0x00FF);
	
	unsigned char xStartH = (unsigned char)(xPos >> 8);
	unsigned char xStartL = (unsigned char)(xPos & 0x00FF);
	unsigned char xEndH = (unsigned char)((xPos + length) >> 8);
 664:	c0 0f       	add	r28, r16
 666:	d1 1f       	adc	r29, r17
	xmitDATA(yEnd); // Finish 239
		
	xmitCMD(0x2B); // Y Address Set
	xmitDATA(xStartH); //
	xmitDATA(xStartL); // Start 0
	xmitDATA(xEndH); //
 668:	8d 2f       	mov	r24, r29
 66a:	0e 94 ed 01 	call	0x3da	; 0x3da <_Z8xmitDATAh>
	xmitDATA(xEndL); // Finish 319
 66e:	8c 2d       	mov	r24, r12
 670:	0e 94 ed 01 	call	0x3da	; 0x3da <_Z8xmitDATAh>
		
	xmitCMD(0x2C); // Start writing pixels
 674:	8c e2       	ldi	r24, 0x2C	; 44
 676:	0e 94 15 02 	call	0x42a	; 0x42a <_Z7xmitCMDh>
	for(int i=0; i<=length; i++) {
 67a:	11 23       	and	r17, r17
 67c:	64 f0       	brlt	.+24     	; 0x696 <_Z9xmitHLinessss+0x8c>
 67e:	c0 e0       	ldi	r28, 0x00	; 0
 680:	d0 e0       	ldi	r29, 0x00	; 0
		xmitDATA(colorH);
 682:	8f 2d       	mov	r24, r15
 684:	0e 94 ed 01 	call	0x3da	; 0x3da <_Z8xmitDATAh>
		xmitDATA(colorL);
 688:	8e 2d       	mov	r24, r14
 68a:	0e 94 ed 01 	call	0x3da	; 0x3da <_Z8xmitDATAh>
	xmitDATA(xStartL); // Start 0
	xmitDATA(xEndH); //
	xmitDATA(xEndL); // Finish 319
		
	xmitCMD(0x2C); // Start writing pixels
	for(int i=0; i<=length; i++) {
 68e:	21 96       	adiw	r28, 0x01	; 1
 690:	0c 17       	cp	r16, r28
 692:	1d 07       	cpc	r17, r29
 694:	b4 f7       	brge	.-20     	; 0x682 <_Z9xmitHLinessss+0x78>
		xmitDATA(colorH);
		xmitDATA(colorL);
			
	}
}
 696:	df 91       	pop	r29
 698:	cf 91       	pop	r28
 69a:	1f 91       	pop	r17
 69c:	0f 91       	pop	r16
 69e:	ff 90       	pop	r15
 6a0:	ef 90       	pop	r14
 6a2:	df 90       	pop	r13
 6a4:	cf 90       	pop	r12
 6a6:	08 95       	ret

000006a8 <_Z9xmitVLinessss>:

// 60, 160, 120, RED
void xmitVLine(short int xPos, short int yPos, short int length, short int color)
{
 6a8:	cf 92       	push	r12
 6aa:	df 92       	push	r13
 6ac:	ef 92       	push	r14
 6ae:	ff 92       	push	r15
 6b0:	0f 93       	push	r16
 6b2:	1f 93       	push	r17
 6b4:	cf 93       	push	r28
 6b6:	df 93       	push	r29
 6b8:	d8 2f       	mov	r29, r24
 6ba:	d9 2e       	mov	r13, r25
 6bc:	c6 2f       	mov	r28, r22
 6be:	7a 01       	movw	r14, r20
	unsigned char colorH = (unsigned char)(color >> 8);
 6c0:	13 2f       	mov	r17, r19
	unsigned char colorL = (unsigned char)(color & 0x00FF);
 6c2:	02 2f       	mov	r16, r18
	unsigned char xStartH = (unsigned char)(xPos >> 8);
	unsigned char xStartL = (unsigned char)(xPos & 0x00FF);
	unsigned char xEndH = xStartH;
	unsigned char xEndL = xStartL;
	unsigned char yStart = (unsigned char)yPos;
	unsigned char yEnd = (unsigned char)yPos + (unsigned char)length;
 6c4:	c6 2e       	mov	r12, r22
 6c6:	c4 0e       	add	r12, r20
	
	xmitCMD(0x36); // Memory access control
 6c8:	86 e3       	ldi	r24, 0x36	; 54
 6ca:	0e 94 15 02 	call	0x42a	; 0x42a <_Z7xmitCMDh>
	xmitDATA(0xA0); // Bottom to top, left to right, rest default
 6ce:	80 ea       	ldi	r24, 0xA0	; 160
 6d0:	0e 94 ed 01 	call	0x3da	; 0x3da <_Z8xmitDATAh>
	
	xmitCMD(0x2A); // X Address Set
 6d4:	8a e2       	ldi	r24, 0x2A	; 42
 6d6:	0e 94 15 02 	call	0x42a	; 0x42a <_Z7xmitCMDh>
	xmitDATA(xStartH); //
 6da:	8d 2d       	mov	r24, r13
 6dc:	0e 94 ed 01 	call	0x3da	; 0x3da <_Z8xmitDATAh>
	xmitDATA(xStartL); // Start 0
 6e0:	8d 2f       	mov	r24, r29
 6e2:	0e 94 ed 01 	call	0x3da	; 0x3da <_Z8xmitDATAh>
	xmitDATA(xEndH); //
 6e6:	8d 2d       	mov	r24, r13
 6e8:	0e 94 ed 01 	call	0x3da	; 0x3da <_Z8xmitDATAh>
	xmitDATA(xEndL); // Finish 319
 6ec:	8d 2f       	mov	r24, r29
 6ee:	0e 94 ed 01 	call	0x3da	; 0x3da <_Z8xmitDATAh>
	
	xmitCMD(0x2B); // /y Address Set
 6f2:	8b e2       	ldi	r24, 0x2B	; 43
 6f4:	0e 94 15 02 	call	0x42a	; 0x42a <_Z7xmitCMDh>
	xmitDATA(0x00); //
 6f8:	80 e0       	ldi	r24, 0x00	; 0
 6fa:	0e 94 ed 01 	call	0x3da	; 0x3da <_Z8xmitDATAh>
	xmitDATA(yStart); // Start 0
 6fe:	8c 2f       	mov	r24, r28
 700:	0e 94 ed 01 	call	0x3da	; 0x3da <_Z8xmitDATAh>
	xmitDATA(0x00); //
 704:	80 e0       	ldi	r24, 0x00	; 0
 706:	0e 94 ed 01 	call	0x3da	; 0x3da <_Z8xmitDATAh>
	xmitDATA(yEnd); // Finish 239
 70a:	8c 2d       	mov	r24, r12
 70c:	0e 94 ed 01 	call	0x3da	; 0x3da <_Z8xmitDATAh>

	xmitCMD(0x2C); // Start writing pixels	
 710:	8c e2       	ldi	r24, 0x2C	; 44
 712:	0e 94 15 02 	call	0x42a	; 0x42a <_Z7xmitCMDh>
	for(int i=0; i<length; i++) {
 716:	1e 14       	cp	r1, r14
 718:	1f 04       	cpc	r1, r15
 71a:	64 f4       	brge	.+24     	; 0x734 <_Z9xmitVLinessss+0x8c>
 71c:	c0 e0       	ldi	r28, 0x00	; 0
 71e:	d0 e0       	ldi	r29, 0x00	; 0
		xmitDATA(colorH);
 720:	81 2f       	mov	r24, r17
 722:	0e 94 ed 01 	call	0x3da	; 0x3da <_Z8xmitDATAh>
		xmitDATA(colorL);
 726:	80 2f       	mov	r24, r16
 728:	0e 94 ed 01 	call	0x3da	; 0x3da <_Z8xmitDATAh>
	xmitDATA(yStart); // Start 0
	xmitDATA(0x00); //
	xmitDATA(yEnd); // Finish 239

	xmitCMD(0x2C); // Start writing pixels	
	for(int i=0; i<length; i++) {
 72c:	21 96       	adiw	r28, 0x01	; 1
 72e:	ce 15       	cp	r28, r14
 730:	df 05       	cpc	r29, r15
 732:	b1 f7       	brne	.-20     	; 0x720 <_Z9xmitVLinessss+0x78>
		xmitDATA(colorH);
		xmitDATA(colorL);
	}
}
 734:	df 91       	pop	r29
 736:	cf 91       	pop	r28
 738:	1f 91       	pop	r17
 73a:	0f 91       	pop	r16
 73c:	ff 90       	pop	r15
 73e:	ef 90       	pop	r14
 740:	df 90       	pop	r13
 742:	cf 90       	pop	r12
 744:	08 95       	ret

00000746 <_Z7drawBoxsssss>:
	xmitVLine(193, 16, 223, black);	// Low/Mid separator
	xmitVLine(257, 16, 223, black);	// Mid/High separator
	
}

void drawBox(short int topleft_x, short int topleft_y, short int botright_x, short int botright_y, short int color){
 746:	6f 92       	push	r6
 748:	7f 92       	push	r7
 74a:	8f 92       	push	r8
 74c:	9f 92       	push	r9
 74e:	af 92       	push	r10
 750:	bf 92       	push	r11
 752:	cf 92       	push	r12
 754:	df 92       	push	r13
 756:	ef 92       	push	r14
 758:	ff 92       	push	r15
 75a:	0f 93       	push	r16
 75c:	1f 93       	push	r17
 75e:	cf 93       	push	r28
 760:	df 93       	push	r29
 762:	7c 01       	movw	r14, r24
 764:	eb 01       	movw	r28, r22
 766:	6a 01       	movw	r12, r20
 768:	59 01       	movw	r10, r18
 76a:	38 01       	movw	r6, r16
	short int height = botright_y - topleft_y;
 76c:	89 01       	movw	r16, r18
 76e:	06 1b       	sub	r16, r22
 770:	17 0b       	sbc	r17, r23
	short int width = botright_x - topleft_x;
 772:	4a 01       	movw	r8, r20
 774:	88 1a       	sub	r8, r24
 776:	99 0a       	sbc	r9, r25
	xmitHLine(topleft_x, topleft_y, width, color);	// top
 778:	93 01       	movw	r18, r6
 77a:	a4 01       	movw	r20, r8
 77c:	0e 94 05 03 	call	0x60a	; 0x60a <_Z9xmitHLinessss>
	xmitHLine(topleft_x, botright_y, width, color);	// bottom
 780:	93 01       	movw	r18, r6
 782:	a4 01       	movw	r20, r8
 784:	b5 01       	movw	r22, r10
 786:	c7 01       	movw	r24, r14
 788:	0e 94 05 03 	call	0x60a	; 0x60a <_Z9xmitHLinessss>
	xmitVLine(topleft_x, topleft_y, height, color);	// left
 78c:	93 01       	movw	r18, r6
 78e:	a8 01       	movw	r20, r16
 790:	be 01       	movw	r22, r28
 792:	c7 01       	movw	r24, r14
 794:	0e 94 54 03 	call	0x6a8	; 0x6a8 <_Z9xmitVLinessss>
	xmitVLine(botright_x, topleft_y, height, color);	// right
 798:	93 01       	movw	r18, r6
 79a:	a8 01       	movw	r20, r16
 79c:	be 01       	movw	r22, r28
 79e:	c6 01       	movw	r24, r12
 7a0:	0e 94 54 03 	call	0x6a8	; 0x6a8 <_Z9xmitVLinessss>
}
 7a4:	df 91       	pop	r29
 7a6:	cf 91       	pop	r28
 7a8:	1f 91       	pop	r17
 7aa:	0f 91       	pop	r16
 7ac:	ff 90       	pop	r15
 7ae:	ef 90       	pop	r14
 7b0:	df 90       	pop	r13
 7b2:	cf 90       	pop	r12
 7b4:	bf 90       	pop	r11
 7b6:	af 90       	pop	r10
 7b8:	9f 90       	pop	r9
 7ba:	8f 90       	pop	r8
 7bc:	7f 90       	pop	r7
 7be:	6f 90       	pop	r6
 7c0:	08 95       	ret

000007c2 <_Z8drawCharhssss>:
	else if (c == ' ') c_val = 40;
	return c_val;
}

void drawChar(unsigned char c, short int xStart, short int yStart, short int text_color, short int bg_color)
{
 7c2:	8f 92       	push	r8
 7c4:	9f 92       	push	r9
 7c6:	af 92       	push	r10
 7c8:	bf 92       	push	r11
 7ca:	cf 92       	push	r12
 7cc:	df 92       	push	r13
 7ce:	ef 92       	push	r14
 7d0:	ff 92       	push	r15
 7d2:	0f 93       	push	r16
 7d4:	1f 93       	push	r17
 7d6:	cf 93       	push	r28
 7d8:	df 93       	push	r29
 7da:	cd b7       	in	r28, 0x3d	; 61
 7dc:	de b7       	in	r29, 0x3e	; 62
 7de:	a0 97       	sbiw	r28, 0x20	; 32
 7e0:	cd bf       	out	0x3d, r28	; 61
 7e2:	de bf       	out	0x3e, r29	; 62
 7e4:	c8 2e       	mov	r12, r24
 7e6:	7b 01       	movw	r14, r22
 7e8:	d4 2e       	mov	r13, r20
	unsigned char tcolorH = (unsigned char)(text_color >> 8);
 7ea:	b3 2e       	mov	r11, r19
	unsigned char tcolorL = (unsigned char)(text_color & 0x00FF);
 7ec:	a2 2e       	mov	r10, r18
	unsigned char bgcolorH = (unsigned char)(bg_color >> 8);
 7ee:	91 2e       	mov	r9, r17
	unsigned char bgcolorL = (unsigned char)(bg_color & 0x00FF);
 7f0:	80 2e       	mov	r8, r16
	unsigned char xEndH = (unsigned char)((xStart + 15) >> 8);
	unsigned char xEndL = (unsigned char)((xStart + 15) & 0x00FF);
	unsigned char yStartL = (unsigned char)yStart;
	unsigned char yEnd = (unsigned char)(yStart + 15);	
	
	xmitCMD(0x36); // Memory access control
 7f2:	86 e3       	ldi	r24, 0x36	; 54
 7f4:	0e 94 15 02 	call	0x42a	; 0x42a <_Z7xmitCMDh>
	xmitDATA(0xA0); // Bottom to top, left to right, rest default
 7f8:	80 ea       	ldi	r24, 0xA0	; 160
 7fa:	0e 94 ed 01 	call	0x3da	; 0x3da <_Z8xmitDATAh>
	//xmitCMD(0x36); // Memory access control
	//xmitDATA(0xA0); // Bottom to top, left to right, rest default
	
	xmitCMD(0x2A); // X Address Set
 7fe:	8a e2       	ldi	r24, 0x2A	; 42
 800:	0e 94 15 02 	call	0x42a	; 0x42a <_Z7xmitCMDh>
	xmitDATA(xStartH); //
 804:	8f 2d       	mov	r24, r15
 806:	0e 94 ed 01 	call	0x3da	; 0x3da <_Z8xmitDATAh>
	xmitDATA(xStartL); // Start 0
 80a:	8e 2d       	mov	r24, r14
 80c:	0e 94 ed 01 	call	0x3da	; 0x3da <_Z8xmitDATAh>
	unsigned char tcolorL = (unsigned char)(text_color & 0x00FF);
	unsigned char bgcolorH = (unsigned char)(bg_color >> 8);
	unsigned char bgcolorL = (unsigned char)(bg_color & 0x00FF);
	unsigned char xStartH = (unsigned char)(xStart >> 8);
	unsigned char xStartL = (unsigned char)(xStart & 0x00FF);
	unsigned char xEndH = (unsigned char)((xStart + 15) >> 8);
 810:	c7 01       	movw	r24, r14
 812:	0f 96       	adiw	r24, 0x0f	; 15
	//xmitDATA(0xA0); // Bottom to top, left to right, rest default
	
	xmitCMD(0x2A); // X Address Set
	xmitDATA(xStartH); //
	xmitDATA(xStartL); // Start 0
	xmitDATA(xEndH); //
 814:	89 2f       	mov	r24, r25
 816:	0e 94 ed 01 	call	0x3da	; 0x3da <_Z8xmitDATAh>
	xmitDATA(xEndL); // Finish 319
 81a:	8f e0       	ldi	r24, 0x0F	; 15
 81c:	8e 0d       	add	r24, r14
 81e:	0e 94 ed 01 	call	0x3da	; 0x3da <_Z8xmitDATAh>
	
	xmitCMD(0x2B); // /y Address Set
 822:	8b e2       	ldi	r24, 0x2B	; 43
 824:	0e 94 15 02 	call	0x42a	; 0x42a <_Z7xmitCMDh>
	xmitDATA(0x00); //
 828:	80 e0       	ldi	r24, 0x00	; 0
 82a:	0e 94 ed 01 	call	0x3da	; 0x3da <_Z8xmitDATAh>
	xmitDATA(yStartL); // Start 0
 82e:	8d 2d       	mov	r24, r13
 830:	0e 94 ed 01 	call	0x3da	; 0x3da <_Z8xmitDATAh>
	xmitDATA(0x00); //
 834:	80 e0       	ldi	r24, 0x00	; 0
 836:	0e 94 ed 01 	call	0x3da	; 0x3da <_Z8xmitDATAh>
	xmitDATA(yEnd); // Finish 239
 83a:	8f e0       	ldi	r24, 0x0F	; 15
 83c:	8d 0d       	add	r24, r13
 83e:	0e 94 ed 01 	call	0x3da	; 0x3da <_Z8xmitDATAh>
	
	int c_index = getCharIndex(c);
 842:	8c 2d       	mov	r24, r12
 844:	0e 94 f7 01 	call	0x3ee	; 0x3ee <_Z12getCharIndexh>
 848:	88 0f       	add	r24, r24
 84a:	99 1f       	adc	r25, r25
 84c:	82 95       	swap	r24
 84e:	92 95       	swap	r25
 850:	90 7f       	andi	r25, 0xF0	; 240
 852:	98 27       	eor	r25, r24
 854:	80 7f       	andi	r24, 0xF0	; 240
 856:	98 27       	eor	r25, r24
 858:	fc 01       	movw	r30, r24
 85a:	e0 50       	subi	r30, 0x00	; 0
 85c:	f0 4e       	sbci	r31, 0xE0	; 224
 85e:	9e 01       	movw	r18, r28
 860:	2f 5f       	subi	r18, 0xFF	; 255
 862:	3f 4f       	sbci	r19, 0xFF	; 255
 864:	79 01       	movw	r14, r18
 866:	80 5e       	subi	r24, 0xE0	; 224
 868:	9f 4d       	sbci	r25, 0xDF	; 223
 86a:	d9 01       	movw	r26, r18
	short int chr[16];
	for(int i=0; i<16; i++)
		chr[i] = font[c_index][i];
 86c:	21 91       	ld	r18, Z+
 86e:	31 91       	ld	r19, Z+
 870:	2d 93       	st	X+, r18
 872:	3d 93       	st	X+, r19
	xmitDATA(0x00); //
	xmitDATA(yEnd); // Finish 239
	
	int c_index = getCharIndex(c);
	short int chr[16];
	for(int i=0; i<16; i++)
 874:	e8 17       	cp	r30, r24
 876:	f9 07       	cpc	r31, r25
 878:	c9 f7       	brne	.-14     	; 0x86c <_Z8drawCharhssss+0xaa>
		chr[i] = font[c_index][i];
	
	xmitCMD(0x2C); // Start writing pixels
 87a:	8c e2       	ldi	r24, 0x2C	; 44
 87c:	0e 94 15 02 	call	0x42a	; 0x42a <_Z7xmitCMDh>
 880:	6e 01       	movw	r12, r28
 882:	31 e2       	ldi	r19, 0x21	; 33
 884:	c3 0e       	add	r12, r19
 886:	d1 1c       	adc	r13, r1
 888:	21 c0       	rjmp	.+66     	; 0x8cc <_Z8drawCharhssss+0x10a>
	for(int i=0; i<16; i++) {
		for(int j=0; j<16; j++) {
			
			if(chr[i] & (1<<(15-j))){
 88a:	f7 01       	movw	r30, r14
 88c:	40 81       	ld	r20, Z
 88e:	51 81       	ldd	r21, Z+1	; 0x01
 890:	00 2e       	mov	r0, r16
 892:	02 c0       	rjmp	.+4      	; 0x898 <_Z8drawCharhssss+0xd6>
 894:	55 95       	asr	r21
 896:	47 95       	ror	r20
 898:	0a 94       	dec	r0
 89a:	e2 f7       	brpl	.-8      	; 0x894 <_Z8drawCharhssss+0xd2>
 89c:	40 ff       	sbrs	r20, 0
 89e:	07 c0       	rjmp	.+14     	; 0x8ae <_Z8drawCharhssss+0xec>
				xmitDATA(tcolorH);
 8a0:	8b 2d       	mov	r24, r11
 8a2:	0e 94 ed 01 	call	0x3da	; 0x3da <_Z8xmitDATAh>
				xmitDATA(tcolorL);
 8a6:	8a 2d       	mov	r24, r10
 8a8:	0e 94 ed 01 	call	0x3da	; 0x3da <_Z8xmitDATAh>
 8ac:	06 c0       	rjmp	.+12     	; 0x8ba <_Z8drawCharhssss+0xf8>
			}
			else{
				xmitDATA(bgcolorH);
 8ae:	89 2d       	mov	r24, r9
 8b0:	0e 94 ed 01 	call	0x3da	; 0x3da <_Z8xmitDATAh>
				xmitDATA(bgcolorL);
 8b4:	88 2d       	mov	r24, r8
 8b6:	0e 94 ed 01 	call	0x3da	; 0x3da <_Z8xmitDATAh>
 8ba:	01 50       	subi	r16, 0x01	; 1
 8bc:	11 09       	sbc	r17, r1
 8be:	28 f7       	brcc	.-54     	; 0x88a <_Z8drawCharhssss+0xc8>
 8c0:	22 e0       	ldi	r18, 0x02	; 2
 8c2:	e2 0e       	add	r14, r18
 8c4:	f1 1c       	adc	r15, r1
	short int chr[16];
	for(int i=0; i<16; i++)
		chr[i] = font[c_index][i];
	
	xmitCMD(0x2C); // Start writing pixels
	for(int i=0; i<16; i++) {
 8c6:	ec 14       	cp	r14, r12
 8c8:	fd 04       	cpc	r15, r13
 8ca:	19 f0       	breq	.+6      	; 0x8d2 <_Z8drawCharhssss+0x110>
	xmitDATA(0x00); //
	xmitDATA(yStartL); // Start 0
	xmitDATA(0x00); //
	xmitDATA(yEnd); // Finish 239
	
	int c_index = getCharIndex(c);
 8cc:	0f e0       	ldi	r16, 0x0F	; 15
 8ce:	10 e0       	ldi	r17, 0x00	; 0
 8d0:	dc cf       	rjmp	.-72     	; 0x88a <_Z8drawCharhssss+0xc8>
				xmitDATA(bgcolorL);
			}
			
		}
	}	
}
 8d2:	a0 96       	adiw	r28, 0x20	; 32
 8d4:	cd bf       	out	0x3d, r28	; 61
 8d6:	de bf       	out	0x3e, r29	; 62
 8d8:	df 91       	pop	r29
 8da:	cf 91       	pop	r28
 8dc:	1f 91       	pop	r17
 8de:	0f 91       	pop	r16
 8e0:	ff 90       	pop	r15
 8e2:	ef 90       	pop	r14
 8e4:	df 90       	pop	r13
 8e6:	cf 90       	pop	r12
 8e8:	bf 90       	pop	r11
 8ea:	af 90       	pop	r10
 8ec:	9f 90       	pop	r9
 8ee:	8f 90       	pop	r8
 8f0:	08 95       	ret

000008f2 <_Z10drawStringPKcssss>:
	if(val<63){
		fillBox(x_left, y_top, x_right, level, (int)BLACK);	// Fill in empty space white
	}
}

void drawString(const char* str, short int xStart, short int yStart, short int text_color, short int bg_color) {
 8f2:	8f 92       	push	r8
 8f4:	9f 92       	push	r9
 8f6:	af 92       	push	r10
 8f8:	bf 92       	push	r11
 8fa:	cf 92       	push	r12
 8fc:	df 92       	push	r13
 8fe:	ef 92       	push	r14
 900:	ff 92       	push	r15
 902:	0f 93       	push	r16
 904:	1f 93       	push	r17
 906:	cf 93       	push	r28
 908:	df 93       	push	r29
 90a:	fc 01       	movw	r30, r24
 90c:	eb 01       	movw	r28, r22
 90e:	6a 01       	movw	r12, r20
 910:	59 01       	movw	r10, r18
 912:	48 01       	movw	r8, r16
	while (*str) {
 914:	80 81       	ld	r24, Z
 916:	88 23       	and	r24, r24
 918:	81 f0       	breq	.+32     	; 0x93a <_Z10drawStringPKcssss+0x48>
 91a:	7f 01       	movw	r14, r30
 91c:	9f ef       	ldi	r25, 0xFF	; 255
 91e:	e9 1a       	sub	r14, r25
 920:	f9 0a       	sbc	r15, r25
		drawChar(*str++, xStart, yStart, text_color, bg_color);
 922:	84 01       	movw	r16, r8
 924:	95 01       	movw	r18, r10
 926:	a6 01       	movw	r20, r12
 928:	be 01       	movw	r22, r28
 92a:	0e 94 e1 03 	call	0x7c2	; 0x7c2 <_Z8drawCharhssss>
		xStart += 16;
 92e:	60 96       	adiw	r28, 0x10	; 16
		fillBox(x_left, y_top, x_right, level, (int)BLACK);	// Fill in empty space white
	}
}

void drawString(const char* str, short int xStart, short int yStart, short int text_color, short int bg_color) {
	while (*str) {
 930:	f7 01       	movw	r30, r14
 932:	81 91       	ld	r24, Z+
 934:	7f 01       	movw	r14, r30
 936:	81 11       	cpse	r24, r1
 938:	f4 cf       	rjmp	.-24     	; 0x922 <_Z10drawStringPKcssss+0x30>
		drawChar(*str++, xStart, yStart, text_color, bg_color);
		xStart += 16;
	}
}
 93a:	df 91       	pop	r29
 93c:	cf 91       	pop	r28
 93e:	1f 91       	pop	r17
 940:	0f 91       	pop	r16
 942:	ff 90       	pop	r15
 944:	ef 90       	pop	r14
 946:	df 90       	pop	r13
 948:	cf 90       	pop	r12
 94a:	bf 90       	pop	r11
 94c:	af 90       	pop	r10
 94e:	9f 90       	pop	r9
 950:	8f 90       	pop	r8
 952:	08 95       	ret

00000954 <_Z11drawDisplayh>:
			
		}
	}	
}

void drawDisplay(unsigned char preset_no) {
 954:	0f 93       	push	r16
 956:	1f 93       	push	r17
	short int white = BLACK;
	short int black = WHITE;
	
	// Current preset header
	drawString("PRESET 1", 0, 0, black, white);
 958:	00 e0       	ldi	r16, 0x00	; 0
 95a:	10 e0       	ldi	r17, 0x00	; 0
 95c:	2f ef       	ldi	r18, 0xFF	; 255
 95e:	3f ef       	ldi	r19, 0xFF	; 255
 960:	40 e0       	ldi	r20, 0x00	; 0
 962:	50 e0       	ldi	r21, 0x00	; 0
 964:	60 e0       	ldi	r22, 0x00	; 0
 966:	70 e0       	ldi	r23, 0x00	; 0
 968:	80 e2       	ldi	r24, 0x20	; 32
 96a:	95 e2       	ldi	r25, 0x25	; 37
 96c:	0e 94 79 04 	call	0x8f2	; 0x8f2 <_Z10drawStringPKcssss>
	
	// Top channel labels
	drawString("VOL", 7, 30, black, white);
 970:	2f ef       	ldi	r18, 0xFF	; 255
 972:	3f ef       	ldi	r19, 0xFF	; 255
 974:	4e e1       	ldi	r20, 0x1E	; 30
 976:	50 e0       	ldi	r21, 0x00	; 0
 978:	67 e0       	ldi	r22, 0x07	; 7
 97a:	70 e0       	ldi	r23, 0x00	; 0
 97c:	89 e2       	ldi	r24, 0x29	; 41
 97e:	95 e2       	ldi	r25, 0x25	; 37
 980:	0e 94 79 04 	call	0x8f2	; 0x8f2 <_Z10drawStringPKcssss>
	drawString("GAIN", 63, 30, black, white);
 984:	2f ef       	ldi	r18, 0xFF	; 255
 986:	3f ef       	ldi	r19, 0xFF	; 255
 988:	4e e1       	ldi	r20, 0x1E	; 30
 98a:	50 e0       	ldi	r21, 0x00	; 0
 98c:	6f e3       	ldi	r22, 0x3F	; 63
 98e:	70 e0       	ldi	r23, 0x00	; 0
 990:	8d e2       	ldi	r24, 0x2D	; 45
 992:	95 e2       	ldi	r25, 0x25	; 37
 994:	0e 94 79 04 	call	0x8f2	; 0x8f2 <_Z10drawStringPKcssss>
	drawString("LOW", 136, 30, black, white);
 998:	2f ef       	ldi	r18, 0xFF	; 255
 99a:	3f ef       	ldi	r19, 0xFF	; 255
 99c:	4e e1       	ldi	r20, 0x1E	; 30
 99e:	50 e0       	ldi	r21, 0x00	; 0
 9a0:	68 e8       	ldi	r22, 0x88	; 136
 9a2:	70 e0       	ldi	r23, 0x00	; 0
 9a4:	82 e3       	ldi	r24, 0x32	; 50
 9a6:	95 e2       	ldi	r25, 0x25	; 37
 9a8:	0e 94 79 04 	call	0x8f2	; 0x8f2 <_Z10drawStringPKcssss>
	drawString("MID", 201, 30, black, white);
 9ac:	2f ef       	ldi	r18, 0xFF	; 255
 9ae:	3f ef       	ldi	r19, 0xFF	; 255
 9b0:	4e e1       	ldi	r20, 0x1E	; 30
 9b2:	50 e0       	ldi	r21, 0x00	; 0
 9b4:	69 ec       	ldi	r22, 0xC9	; 201
 9b6:	70 e0       	ldi	r23, 0x00	; 0
 9b8:	86 e3       	ldi	r24, 0x36	; 54
 9ba:	95 e2       	ldi	r25, 0x25	; 37
 9bc:	0e 94 79 04 	call	0x8f2	; 0x8f2 <_Z10drawStringPKcssss>
	drawString("HIGH", 256, 30, black, white);
 9c0:	2f ef       	ldi	r18, 0xFF	; 255
 9c2:	3f ef       	ldi	r19, 0xFF	; 255
 9c4:	4e e1       	ldi	r20, 0x1E	; 30
 9c6:	50 e0       	ldi	r21, 0x00	; 0
 9c8:	60 e0       	ldi	r22, 0x00	; 0
 9ca:	71 e0       	ldi	r23, 0x01	; 1
 9cc:	8a e3       	ldi	r24, 0x3A	; 58
 9ce:	95 e2       	ldi	r25, 0x25	; 37
 9d0:	0e 94 79 04 	call	0x8f2	; 0x8f2 <_Z10drawStringPKcssss>
	
	// Bottom channel labels
	drawString("VOL", 7, 139, black, white);
 9d4:	2f ef       	ldi	r18, 0xFF	; 255
 9d6:	3f ef       	ldi	r19, 0xFF	; 255
 9d8:	4b e8       	ldi	r20, 0x8B	; 139
 9da:	50 e0       	ldi	r21, 0x00	; 0
 9dc:	67 e0       	ldi	r22, 0x07	; 7
 9de:	70 e0       	ldi	r23, 0x00	; 0
 9e0:	89 e2       	ldi	r24, 0x29	; 41
 9e2:	95 e2       	ldi	r25, 0x25	; 37
 9e4:	0e 94 79 04 	call	0x8f2	; 0x8f2 <_Z10drawStringPKcssss>
	drawString("GAIN", 63, 139, black, white);
 9e8:	2f ef       	ldi	r18, 0xFF	; 255
 9ea:	3f ef       	ldi	r19, 0xFF	; 255
 9ec:	4b e8       	ldi	r20, 0x8B	; 139
 9ee:	50 e0       	ldi	r21, 0x00	; 0
 9f0:	6f e3       	ldi	r22, 0x3F	; 63
 9f2:	70 e0       	ldi	r23, 0x00	; 0
 9f4:	8d e2       	ldi	r24, 0x2D	; 45
 9f6:	95 e2       	ldi	r25, 0x25	; 37
 9f8:	0e 94 79 04 	call	0x8f2	; 0x8f2 <_Z10drawStringPKcssss>
	drawString("LOW", 136, 139, black, white);
 9fc:	2f ef       	ldi	r18, 0xFF	; 255
 9fe:	3f ef       	ldi	r19, 0xFF	; 255
 a00:	4b e8       	ldi	r20, 0x8B	; 139
 a02:	50 e0       	ldi	r21, 0x00	; 0
 a04:	68 e8       	ldi	r22, 0x88	; 136
 a06:	70 e0       	ldi	r23, 0x00	; 0
 a08:	82 e3       	ldi	r24, 0x32	; 50
 a0a:	95 e2       	ldi	r25, 0x25	; 37
 a0c:	0e 94 79 04 	call	0x8f2	; 0x8f2 <_Z10drawStringPKcssss>
	drawString("MID", 201, 139, black, white);
 a10:	2f ef       	ldi	r18, 0xFF	; 255
 a12:	3f ef       	ldi	r19, 0xFF	; 255
 a14:	4b e8       	ldi	r20, 0x8B	; 139
 a16:	50 e0       	ldi	r21, 0x00	; 0
 a18:	69 ec       	ldi	r22, 0xC9	; 201
 a1a:	70 e0       	ldi	r23, 0x00	; 0
 a1c:	86 e3       	ldi	r24, 0x36	; 54
 a1e:	95 e2       	ldi	r25, 0x25	; 37
 a20:	0e 94 79 04 	call	0x8f2	; 0x8f2 <_Z10drawStringPKcssss>
	drawString("HIGH", 256, 139, black, white);
 a24:	2f ef       	ldi	r18, 0xFF	; 255
 a26:	3f ef       	ldi	r19, 0xFF	; 255
 a28:	4b e8       	ldi	r20, 0x8B	; 139
 a2a:	50 e0       	ldi	r21, 0x00	; 0
 a2c:	60 e0       	ldi	r22, 0x00	; 0
 a2e:	71 e0       	ldi	r23, 0x01	; 1
 a30:	8a e3       	ldi	r24, 0x3A	; 58
 a32:	95 e2       	ldi	r25, 0x25	; 37
 a34:	0e 94 79 04 	call	0x8f2	; 0x8f2 <_Z10drawStringPKcssss>
	
	// Top channel levels
	drawBox(10, 50, 50, 115, black);	// Vol level
 a38:	0f ef       	ldi	r16, 0xFF	; 255
 a3a:	1f ef       	ldi	r17, 0xFF	; 255
 a3c:	23 e7       	ldi	r18, 0x73	; 115
 a3e:	30 e0       	ldi	r19, 0x00	; 0
 a40:	42 e3       	ldi	r20, 0x32	; 50
 a42:	50 e0       	ldi	r21, 0x00	; 0
 a44:	62 e3       	ldi	r22, 0x32	; 50
 a46:	70 e0       	ldi	r23, 0x00	; 0
 a48:	8a e0       	ldi	r24, 0x0A	; 10
 a4a:	90 e0       	ldi	r25, 0x00	; 0
 a4c:	0e 94 a3 03 	call	0x746	; 0x746 <_Z7drawBoxsssss>
	drawBox(75, 50, 115, 115, black);	// Gain level
 a50:	23 e7       	ldi	r18, 0x73	; 115
 a52:	30 e0       	ldi	r19, 0x00	; 0
 a54:	43 e7       	ldi	r20, 0x73	; 115
 a56:	50 e0       	ldi	r21, 0x00	; 0
 a58:	62 e3       	ldi	r22, 0x32	; 50
 a5a:	70 e0       	ldi	r23, 0x00	; 0
 a5c:	8b e4       	ldi	r24, 0x4B	; 75
 a5e:	90 e0       	ldi	r25, 0x00	; 0
 a60:	0e 94 a3 03 	call	0x746	; 0x746 <_Z7drawBoxsssss>
	drawBox(140, 50, 180, 115, black);	// Low level
 a64:	23 e7       	ldi	r18, 0x73	; 115
 a66:	30 e0       	ldi	r19, 0x00	; 0
 a68:	44 eb       	ldi	r20, 0xB4	; 180
 a6a:	50 e0       	ldi	r21, 0x00	; 0
 a6c:	62 e3       	ldi	r22, 0x32	; 50
 a6e:	70 e0       	ldi	r23, 0x00	; 0
 a70:	8c e8       	ldi	r24, 0x8C	; 140
 a72:	90 e0       	ldi	r25, 0x00	; 0
 a74:	0e 94 a3 03 	call	0x746	; 0x746 <_Z7drawBoxsssss>
	drawBox(205, 50, 245, 115, black);	// Mid level
 a78:	23 e7       	ldi	r18, 0x73	; 115
 a7a:	30 e0       	ldi	r19, 0x00	; 0
 a7c:	45 ef       	ldi	r20, 0xF5	; 245
 a7e:	50 e0       	ldi	r21, 0x00	; 0
 a80:	62 e3       	ldi	r22, 0x32	; 50
 a82:	70 e0       	ldi	r23, 0x00	; 0
 a84:	8d ec       	ldi	r24, 0xCD	; 205
 a86:	90 e0       	ldi	r25, 0x00	; 0
 a88:	0e 94 a3 03 	call	0x746	; 0x746 <_Z7drawBoxsssss>
	drawBox(270, 50, 310, 115, black);	// High level
 a8c:	23 e7       	ldi	r18, 0x73	; 115
 a8e:	30 e0       	ldi	r19, 0x00	; 0
 a90:	46 e3       	ldi	r20, 0x36	; 54
 a92:	51 e0       	ldi	r21, 0x01	; 1
 a94:	62 e3       	ldi	r22, 0x32	; 50
 a96:	70 e0       	ldi	r23, 0x00	; 0
 a98:	8e e0       	ldi	r24, 0x0E	; 14
 a9a:	91 e0       	ldi	r25, 0x01	; 1
 a9c:	0e 94 a3 03 	call	0x746	; 0x746 <_Z7drawBoxsssss>
	
	// Bottom channel levels
	drawBox(10, 159, 50, 224, black);	// Vol level
 aa0:	20 ee       	ldi	r18, 0xE0	; 224
 aa2:	30 e0       	ldi	r19, 0x00	; 0
 aa4:	42 e3       	ldi	r20, 0x32	; 50
 aa6:	50 e0       	ldi	r21, 0x00	; 0
 aa8:	6f e9       	ldi	r22, 0x9F	; 159
 aaa:	70 e0       	ldi	r23, 0x00	; 0
 aac:	8a e0       	ldi	r24, 0x0A	; 10
 aae:	90 e0       	ldi	r25, 0x00	; 0
 ab0:	0e 94 a3 03 	call	0x746	; 0x746 <_Z7drawBoxsssss>
	drawBox(75, 159, 115, 224, black);	// Gain level
 ab4:	20 ee       	ldi	r18, 0xE0	; 224
 ab6:	30 e0       	ldi	r19, 0x00	; 0
 ab8:	43 e7       	ldi	r20, 0x73	; 115
 aba:	50 e0       	ldi	r21, 0x00	; 0
 abc:	6f e9       	ldi	r22, 0x9F	; 159
 abe:	70 e0       	ldi	r23, 0x00	; 0
 ac0:	8b e4       	ldi	r24, 0x4B	; 75
 ac2:	90 e0       	ldi	r25, 0x00	; 0
 ac4:	0e 94 a3 03 	call	0x746	; 0x746 <_Z7drawBoxsssss>
	drawBox(140, 159, 180, 224, black);	// Low level
 ac8:	20 ee       	ldi	r18, 0xE0	; 224
 aca:	30 e0       	ldi	r19, 0x00	; 0
 acc:	44 eb       	ldi	r20, 0xB4	; 180
 ace:	50 e0       	ldi	r21, 0x00	; 0
 ad0:	6f e9       	ldi	r22, 0x9F	; 159
 ad2:	70 e0       	ldi	r23, 0x00	; 0
 ad4:	8c e8       	ldi	r24, 0x8C	; 140
 ad6:	90 e0       	ldi	r25, 0x00	; 0
 ad8:	0e 94 a3 03 	call	0x746	; 0x746 <_Z7drawBoxsssss>
	drawBox(205, 159, 245, 224, black);	// Mid level
 adc:	20 ee       	ldi	r18, 0xE0	; 224
 ade:	30 e0       	ldi	r19, 0x00	; 0
 ae0:	45 ef       	ldi	r20, 0xF5	; 245
 ae2:	50 e0       	ldi	r21, 0x00	; 0
 ae4:	6f e9       	ldi	r22, 0x9F	; 159
 ae6:	70 e0       	ldi	r23, 0x00	; 0
 ae8:	8d ec       	ldi	r24, 0xCD	; 205
 aea:	90 e0       	ldi	r25, 0x00	; 0
 aec:	0e 94 a3 03 	call	0x746	; 0x746 <_Z7drawBoxsssss>
	drawBox(270, 159, 310, 224, black);	// High level
 af0:	20 ee       	ldi	r18, 0xE0	; 224
 af2:	30 e0       	ldi	r19, 0x00	; 0
 af4:	46 e3       	ldi	r20, 0x36	; 54
 af6:	51 e0       	ldi	r21, 0x01	; 1
 af8:	6f e9       	ldi	r22, 0x9F	; 159
 afa:	70 e0       	ldi	r23, 0x00	; 0
 afc:	8e e0       	ldi	r24, 0x0E	; 14
 afe:	91 e0       	ldi	r25, 0x01	; 1
 b00:	0e 94 a3 03 	call	0x746	; 0x746 <_Z7drawBoxsssss>
	
	// Draw all lines last
	xmitHLine(0, 16, 319, black);	// Header separator
 b04:	2f ef       	ldi	r18, 0xFF	; 255
 b06:	3f ef       	ldi	r19, 0xFF	; 255
 b08:	4f e3       	ldi	r20, 0x3F	; 63
 b0a:	51 e0       	ldi	r21, 0x01	; 1
 b0c:	60 e1       	ldi	r22, 0x10	; 16
 b0e:	70 e0       	ldi	r23, 0x00	; 0
 b10:	80 e0       	ldi	r24, 0x00	; 0
 b12:	90 e0       	ldi	r25, 0x00	; 0
 b14:	0e 94 05 03 	call	0x60a	; 0x60a <_Z9xmitHLinessss>
	xmitHLine(0, 125, 319, black);	// Top/Bottom Channel separator
 b18:	2f ef       	ldi	r18, 0xFF	; 255
 b1a:	3f ef       	ldi	r19, 0xFF	; 255
 b1c:	4f e3       	ldi	r20, 0x3F	; 63
 b1e:	51 e0       	ldi	r21, 0x01	; 1
 b20:	6d e7       	ldi	r22, 0x7D	; 125
 b22:	70 e0       	ldi	r23, 0x00	; 0
 b24:	80 e0       	ldi	r24, 0x00	; 0
 b26:	90 e0       	ldi	r25, 0x00	; 0
 b28:	0e 94 05 03 	call	0x60a	; 0x60a <_Z9xmitHLinessss>
	
	xmitVLine(63, 16, 223, black);	// Vol/Gain separator
 b2c:	2f ef       	ldi	r18, 0xFF	; 255
 b2e:	3f ef       	ldi	r19, 0xFF	; 255
 b30:	4f ed       	ldi	r20, 0xDF	; 223
 b32:	50 e0       	ldi	r21, 0x00	; 0
 b34:	60 e1       	ldi	r22, 0x10	; 16
 b36:	70 e0       	ldi	r23, 0x00	; 0
 b38:	8f e3       	ldi	r24, 0x3F	; 63
 b3a:	90 e0       	ldi	r25, 0x00	; 0
 b3c:	0e 94 54 03 	call	0x6a8	; 0x6a8 <_Z9xmitVLinessss>
	xmitVLine(127, 16, 223, black);	// Gain/Low separator
 b40:	2f ef       	ldi	r18, 0xFF	; 255
 b42:	3f ef       	ldi	r19, 0xFF	; 255
 b44:	4f ed       	ldi	r20, 0xDF	; 223
 b46:	50 e0       	ldi	r21, 0x00	; 0
 b48:	60 e1       	ldi	r22, 0x10	; 16
 b4a:	70 e0       	ldi	r23, 0x00	; 0
 b4c:	8f e7       	ldi	r24, 0x7F	; 127
 b4e:	90 e0       	ldi	r25, 0x00	; 0
 b50:	0e 94 54 03 	call	0x6a8	; 0x6a8 <_Z9xmitVLinessss>
	xmitVLine(193, 16, 223, black);	// Low/Mid separator
 b54:	2f ef       	ldi	r18, 0xFF	; 255
 b56:	3f ef       	ldi	r19, 0xFF	; 255
 b58:	4f ed       	ldi	r20, 0xDF	; 223
 b5a:	50 e0       	ldi	r21, 0x00	; 0
 b5c:	60 e1       	ldi	r22, 0x10	; 16
 b5e:	70 e0       	ldi	r23, 0x00	; 0
 b60:	81 ec       	ldi	r24, 0xC1	; 193
 b62:	90 e0       	ldi	r25, 0x00	; 0
 b64:	0e 94 54 03 	call	0x6a8	; 0x6a8 <_Z9xmitVLinessss>
	xmitVLine(257, 16, 223, black);	// Mid/High separator
 b68:	2f ef       	ldi	r18, 0xFF	; 255
 b6a:	3f ef       	ldi	r19, 0xFF	; 255
 b6c:	4f ed       	ldi	r20, 0xDF	; 223
 b6e:	50 e0       	ldi	r21, 0x00	; 0
 b70:	60 e1       	ldi	r22, 0x10	; 16
 b72:	70 e0       	ldi	r23, 0x00	; 0
 b74:	81 e0       	ldi	r24, 0x01	; 1
 b76:	91 e0       	ldi	r25, 0x01	; 1
 b78:	0e 94 54 03 	call	0x6a8	; 0x6a8 <_Z9xmitVLinessss>
	
}
 b7c:	1f 91       	pop	r17
 b7e:	0f 91       	pop	r16
 b80:	08 95       	ret

00000b82 <_Z7fillBoxsssss>:
	xmitHLine(topleft_x, botright_y, width, color);	// bottom
	xmitVLine(topleft_x, topleft_y, height, color);	// left
	xmitVLine(botright_x, topleft_y, height, color);	// right
}

void fillBox(short int topleft_x, short int topleft_y, short int botright_x, short int botright_y, short int color){
 b82:	6f 92       	push	r6
 b84:	7f 92       	push	r7
 b86:	8f 92       	push	r8
 b88:	9f 92       	push	r9
 b8a:	af 92       	push	r10
 b8c:	bf 92       	push	r11
 b8e:	cf 92       	push	r12
 b90:	df 92       	push	r13
 b92:	ef 92       	push	r14
 b94:	ff 92       	push	r15
 b96:	0f 93       	push	r16
 b98:	1f 93       	push	r17
 b9a:	cf 93       	push	r28
 b9c:	df 93       	push	r29
 b9e:	5c 01       	movw	r10, r24
 ba0:	3b 01       	movw	r6, r22
 ba2:	ea 01       	movw	r28, r20
 ba4:	49 01       	movw	r8, r18
	short int height = botright_y - topleft_y;
 ba6:	79 01       	movw	r14, r18
 ba8:	e6 1a       	sub	r14, r22
 baa:	f7 0a       	sbc	r15, r23
	short int width = botright_x - topleft_x;
 bac:	6a 01       	movw	r12, r20
 bae:	c8 1a       	sub	r12, r24
 bb0:	d9 0a       	sbc	r13, r25
	unsigned char xEndH = (unsigned char)(botright_x >> 8);
	unsigned char xEndL = (unsigned char)(botright_x & 0x00FF);
	unsigned char yStart = (unsigned char)topleft_y;
	unsigned char yEnd = (unsigned char)botright_y;
	
	xmitCMD(0x36); // Memory access control
 bb2:	86 e3       	ldi	r24, 0x36	; 54
 bb4:	0e 94 15 02 	call	0x42a	; 0x42a <_Z7xmitCMDh>
	xmitDATA(0xA0); // Bottom to top, left to right, rest default
 bb8:	80 ea       	ldi	r24, 0xA0	; 160
 bba:	0e 94 ed 01 	call	0x3da	; 0x3da <_Z8xmitDATAh>
	
		xmitCMD(0x2A); // X Address Set
 bbe:	8a e2       	ldi	r24, 0x2A	; 42
 bc0:	0e 94 15 02 	call	0x42a	; 0x42a <_Z7xmitCMDh>
		xmitDATA(xStartH); //
 bc4:	8b 2d       	mov	r24, r11
 bc6:	0e 94 ed 01 	call	0x3da	; 0x3da <_Z8xmitDATAh>
		xmitDATA(xStartL); // Start left x
 bca:	8a 2d       	mov	r24, r10
 bcc:	0e 94 ed 01 	call	0x3da	; 0x3da <_Z8xmitDATAh>
		xmitDATA(xEndH); //
 bd0:	8d 2f       	mov	r24, r29
 bd2:	0e 94 ed 01 	call	0x3da	; 0x3da <_Z8xmitDATAh>
		xmitDATA(xEndL); // Finish right x
 bd6:	8c 2f       	mov	r24, r28
 bd8:	0e 94 ed 01 	call	0x3da	; 0x3da <_Z8xmitDATAh>
		
		xmitCMD(0x2B); // /y Address Set
 bdc:	8b e2       	ldi	r24, 0x2B	; 43
 bde:	0e 94 15 02 	call	0x42a	; 0x42a <_Z7xmitCMDh>
		xmitDATA(0x00); //
 be2:	80 e0       	ldi	r24, 0x00	; 0
 be4:	0e 94 ed 01 	call	0x3da	; 0x3da <_Z8xmitDATAh>
		xmitDATA(yStart); // Start top y
 be8:	86 2d       	mov	r24, r6
 bea:	0e 94 ed 01 	call	0x3da	; 0x3da <_Z8xmitDATAh>
		xmitDATA(0x00); //
 bee:	80 e0       	ldi	r24, 0x00	; 0
 bf0:	0e 94 ed 01 	call	0x3da	; 0x3da <_Z8xmitDATAh>
		xmitDATA(yEnd); // Finish bottom y
 bf4:	88 2d       	mov	r24, r8
 bf6:	0e 94 ed 01 	call	0x3da	; 0x3da <_Z8xmitDATAh>
	
	xmitCMD(0x2C); // Start writing pixels
 bfa:	8c e2       	ldi	r24, 0x2C	; 44
 bfc:	0e 94 15 02 	call	0x42a	; 0x42a <_Z7xmitCMDh>
	for(int i=0; i<=width; i++)
 c00:	dd 20       	and	r13, r13
 c02:	a4 f4       	brge	.+40     	; 0xc2c <_Z7fillBoxsssss+0xaa>
 c04:	18 c0       	rjmp	.+48     	; 0xc36 <_Z7fillBoxsssss+0xb4>
	for(int j=0; j<=height; j++) {
 c06:	c0 e0       	ldi	r28, 0x00	; 0
 c08:	d0 e0       	ldi	r29, 0x00	; 0
		xmitDATA(colorH);
 c0a:	81 2f       	mov	r24, r17
 c0c:	0e 94 ed 01 	call	0x3da	; 0x3da <_Z8xmitDATAh>
		xmitDATA(colorL);
 c10:	80 2f       	mov	r24, r16
 c12:	0e 94 ed 01 	call	0x3da	; 0x3da <_Z8xmitDATAh>
		xmitDATA(0x00); //
		xmitDATA(yEnd); // Finish bottom y
	
	xmitCMD(0x2C); // Start writing pixels
	for(int i=0; i<=width; i++)
	for(int j=0; j<=height; j++) {
 c16:	21 96       	adiw	r28, 0x01	; 1
 c18:	ec 16       	cp	r14, r28
 c1a:	fd 06       	cpc	r15, r29
 c1c:	b4 f7       	brge	.-20     	; 0xc0a <_Z7fillBoxsssss+0x88>
		xmitDATA(yStart); // Start top y
		xmitDATA(0x00); //
		xmitDATA(yEnd); // Finish bottom y
	
	xmitCMD(0x2C); // Start writing pixels
	for(int i=0; i<=width; i++)
 c1e:	8f ef       	ldi	r24, 0xFF	; 255
 c20:	a8 1a       	sub	r10, r24
 c22:	b8 0a       	sbc	r11, r24
 c24:	ca 14       	cp	r12, r10
 c26:	db 04       	cpc	r13, r11
 c28:	1c f4       	brge	.+6      	; 0xc30 <_Z7fillBoxsssss+0xae>
 c2a:	05 c0       	rjmp	.+10     	; 0xc36 <_Z7fillBoxsssss+0xb4>
 c2c:	a1 2c       	mov	r10, r1
 c2e:	b1 2c       	mov	r11, r1
	for(int j=0; j<=height; j++) {
 c30:	ff 20       	and	r15, r15
 c32:	4c f7       	brge	.-46     	; 0xc06 <_Z7fillBoxsssss+0x84>
 c34:	f4 cf       	rjmp	.-24     	; 0xc1e <_Z7fillBoxsssss+0x9c>
		xmitDATA(colorH);
		xmitDATA(colorL);
	}
}
 c36:	df 91       	pop	r29
 c38:	cf 91       	pop	r28
 c3a:	1f 91       	pop	r17
 c3c:	0f 91       	pop	r16
 c3e:	ff 90       	pop	r15
 c40:	ef 90       	pop	r14
 c42:	df 90       	pop	r13
 c44:	cf 90       	pop	r12
 c46:	bf 90       	pop	r11
 c48:	af 90       	pop	r10
 c4a:	9f 90       	pop	r9
 c4c:	8f 90       	pop	r8
 c4e:	7f 90       	pop	r7
 c50:	6f 90       	pop	r6
 c52:	08 95       	ret

00000c54 <_Z9drawLevelsssss>:

void drawLevel(short int x_left, short int x_right, short int y_top, short int y_bot, short int val){
 c54:	8f 92       	push	r8
 c56:	9f 92       	push	r9
 c58:	af 92       	push	r10
 c5a:	bf 92       	push	r11
 c5c:	cf 92       	push	r12
 c5e:	df 92       	push	r13
 c60:	ef 92       	push	r14
 c62:	ff 92       	push	r15
 c64:	0f 93       	push	r16
 c66:	1f 93       	push	r17
 c68:	cf 93       	push	r28
 c6a:	df 93       	push	r29
 c6c:	7c 01       	movw	r14, r24
 c6e:	6b 01       	movw	r12, r22
 c70:	4a 01       	movw	r8, r20
 c72:	e8 01       	movw	r28, r16
	short int blue = BLUE;
	short int black = BLACK;
	
	short int level = y_bot - val;			// Get height to draw level (value from 0-255 mapped to height of box)
 c74:	59 01       	movw	r10, r18
 c76:	a0 1a       	sub	r10, r16
 c78:	b1 0a       	sbc	r11, r17
	if(val>0){
 c7a:	1c 16       	cp	r1, r28
 c7c:	1d 06       	cpc	r1, r29
 c7e:	34 f4       	brge	.+12     	; 0xc8c <_Z9drawLevelsssss+0x38>
		fillBox(x_left, level, x_right, y_bot, (int)RED);	// Fill in gain level blue
 c80:	00 e0       	ldi	r16, 0x00	; 0
 c82:	18 ef       	ldi	r17, 0xF8	; 248
 c84:	ab 01       	movw	r20, r22
 c86:	b5 01       	movw	r22, r10
 c88:	0e 94 c1 05 	call	0xb82	; 0xb82 <_Z7fillBoxsssss>
	}
	if(val<63){
 c8c:	ef 97       	sbiw	r28, 0x3f	; 63
 c8e:	44 f4       	brge	.+16     	; 0xca0 <_Z9drawLevelsssss+0x4c>
		fillBox(x_left, y_top, x_right, level, (int)BLACK);	// Fill in empty space white
 c90:	00 e0       	ldi	r16, 0x00	; 0
 c92:	10 e0       	ldi	r17, 0x00	; 0
 c94:	95 01       	movw	r18, r10
 c96:	a6 01       	movw	r20, r12
 c98:	b4 01       	movw	r22, r8
 c9a:	c7 01       	movw	r24, r14
 c9c:	0e 94 c1 05 	call	0xb82	; 0xb82 <_Z7fillBoxsssss>
	}
}
 ca0:	df 91       	pop	r29
 ca2:	cf 91       	pop	r28
 ca4:	1f 91       	pop	r17
 ca6:	0f 91       	pop	r16
 ca8:	ff 90       	pop	r15
 caa:	ef 90       	pop	r14
 cac:	df 90       	pop	r13
 cae:	cf 90       	pop	r12
 cb0:	bf 90       	pop	r11
 cb2:	af 90       	pop	r10
 cb4:	9f 90       	pop	r9
 cb6:	8f 90       	pop	r8
 cb8:	08 95       	ret

00000cba <main>:
static int i_max = 175; // Maximum tube heater current
static int v_min = 100; // Minimum tube plate voltage supply
static int v_max = 200; // Maximum tube plate voltage supply

int main(void) 
{
 cba:	cf 93       	push	r28
 cbc:	df 93       	push	r29
 cbe:	cd b7       	in	r28, 0x3d	; 61
 cc0:	de b7       	in	r29, 0x3e	; 62
 cc2:	a5 97       	sbiw	r28, 0x25	; 37
 cc4:	cd bf       	out	0x3d, r28	; 61
 cc6:	de bf       	out	0x3e, r29	; 62
	bool MA_ON = false;
	bool MB_ON = false;

	userConfig userQueue[maxConfig];
 cc8:	8d b7       	in	r24, 0x3d	; 61
 cca:	9e b7       	in	r25, 0x3e	; 62
 ccc:	86 5e       	subi	r24, 0xE6	; 230
 cce:	91 09       	sbc	r25, r1
 cd0:	8d bf       	out	0x3d, r24	; 61
 cd2:	9e bf       	out	0x3e, r25	; 62
 cd4:	ad b7       	in	r26, 0x3d	; 61
 cd6:	be b7       	in	r27, 0x3e	; 62
 cd8:	11 96       	adiw	r26, 0x01	; 1
 cda:	7d 01       	movw	r14, r26
	
	userQueue[numConfig].name = "HEAVY DIST 1"; // This is a heavily distorted preset
 cdc:	80 91 5c 25 	lds	r24, 0x255C
 ce0:	90 91 5d 25 	lds	r25, 0x255D
 ce4:	0f 2e       	mov	r0, r31
 ce6:	f7 e1       	ldi	r31, 0x17	; 23
 ce8:	7f 2e       	mov	r7, r31
 cea:	f0 2d       	mov	r31, r0
 cec:	78 9e       	mul	r7, r24
 cee:	f0 01       	movw	r30, r0
 cf0:	79 9e       	mul	r7, r25
 cf2:	f0 0d       	add	r31, r0
 cf4:	11 24       	eor	r1, r1
 cf6:	ea 0f       	add	r30, r26
 cf8:	fb 1f       	adc	r31, r27
 cfa:	2f e3       	ldi	r18, 0x3F	; 63
 cfc:	35 e2       	ldi	r19, 0x25	; 37
 cfe:	20 83       	st	Z, r18
 d00:	31 83       	std	Z+1, r19	; 0x01
	userQueue[numConfig].cleanOn = false;
 d02:	10 8a       	std	Z+16, r1	; 0x10
	userQueue[numConfig].bass = 75;
 d04:	2b e4       	ldi	r18, 0x4B	; 75
 d06:	30 e0       	ldi	r19, 0x00	; 0
 d08:	22 87       	std	Z+10, r18	; 0x0a
 d0a:	33 87       	std	Z+11, r19	; 0x0b
	userQueue[numConfig].mids = 85;
 d0c:	45 e5       	ldi	r20, 0x55	; 85
 d0e:	50 e0       	ldi	r21, 0x00	; 0
 d10:	46 87       	std	Z+14, r20	; 0x0e
 d12:	57 87       	std	Z+15, r21	; 0x0f
	userQueue[numConfig].treble = 75;
 d14:	24 87       	std	Z+12, r18	; 0x0c
 d16:	35 87       	std	Z+13, r19	; 0x0d
	userQueue[numConfig].gain = 85;
 d18:	42 83       	std	Z+2, r20	; 0x02
 d1a:	53 83       	std	Z+3, r21	; 0x03
	userQueue[numConfig].i_ValveA = 140;
 d1c:	0c e8       	ldi	r16, 0x8C	; 140
 d1e:	10 e0       	ldi	r17, 0x00	; 0
 d20:	01 8b       	std	Z+17, r16	; 0x11
 d22:	12 8b       	std	Z+18, r17	; 0x12
	userQueue[numConfig].i_ValveB = 155; // Buffer tube should be HOT
 d24:	ab e9       	ldi	r26, 0x9B	; 155
 d26:	b0 e0       	ldi	r27, 0x00	; 0
 d28:	a3 8b       	std	Z+19, r26	; 0x13
 d2a:	b4 8b       	std	Z+20, r27	; 0x14
	userQueue[numConfig].auxVol = 0;
 d2c:	16 82       	std	Z+6, r1	; 0x06
 d2e:	17 82       	std	Z+7, r1	; 0x07
	userQueue[numConfig].hphVol = 0;
 d30:	10 86       	std	Z+8, r1	; 0x08
 d32:	11 86       	std	Z+9, r1	; 0x09
	userQueue[numConfig].volume = 50;
 d34:	0f 2e       	mov	r0, r31
 d36:	f2 e3       	ldi	r31, 0x32	; 50
 d38:	4f 2e       	mov	r4, r31
 d3a:	51 2c       	mov	r5, r1
 d3c:	f0 2d       	mov	r31, r0
 d3e:	44 82       	std	Z+4, r4	; 0x04
 d40:	55 82       	std	Z+5, r5	; 0x05
	userQueue[numConfig].v_Valve = 180;
 d42:	0f 2e       	mov	r0, r31
 d44:	f4 eb       	ldi	r31, 0xB4	; 180
 d46:	af 2e       	mov	r10, r31
 d48:	b1 2c       	mov	r11, r1
 d4a:	f0 2d       	mov	r31, r0
 d4c:	a5 8a       	std	Z+21, r10	; 0x15
 d4e:	b6 8a       	std	Z+22, r11	; 0x16
	numConfig++;	
 d50:	6c 01       	movw	r12, r24
 d52:	6f ef       	ldi	r22, 0xFF	; 255
 d54:	c6 1a       	sub	r12, r22
 d56:	d6 0a       	sbc	r13, r22
	
	userQueue[numConfig].name = "CLEAN GROOVE 1"; // This is a bass heavy clean preset
 d58:	0f 2e       	mov	r0, r31
 d5a:	fc e4       	ldi	r31, 0x4C	; 76
 d5c:	8f 2e       	mov	r8, r31
 d5e:	f5 e2       	ldi	r31, 0x25	; 37
 d60:	9f 2e       	mov	r9, r31
 d62:	f0 2d       	mov	r31, r0
 d64:	87 8a       	std	Z+23, r8	; 0x17
 d66:	90 8e       	std	Z+24, r9	; 0x18
	userQueue[numConfig].cleanOn = true;
 d68:	7c 9c       	mul	r7, r12
 d6a:	f0 01       	movw	r30, r0
 d6c:	7d 9c       	mul	r7, r13
 d6e:	f0 0d       	add	r31, r0
 d70:	11 24       	eor	r1, r1
 d72:	ee 0d       	add	r30, r14
 d74:	ff 1d       	adc	r31, r15
 d76:	ff 24       	eor	r15, r15
 d78:	f3 94       	inc	r15
 d7a:	f0 8a       	std	Z+16, r15	; 0x10
	userQueue[numConfig].bass = 85;
 d7c:	42 87       	std	Z+10, r20	; 0x0a
 d7e:	53 87       	std	Z+11, r21	; 0x0b
	userQueue[numConfig].mids = 75;
 d80:	26 87       	std	Z+14, r18	; 0x0e
 d82:	37 87       	std	Z+15, r19	; 0x0f
	userQueue[numConfig].treble = 75;
 d84:	24 87       	std	Z+12, r18	; 0x0c
 d86:	35 87       	std	Z+13, r19	; 0x0d
	userQueue[numConfig].gain = 25;
 d88:	29 e1       	ldi	r18, 0x19	; 25
 d8a:	30 e0       	ldi	r19, 0x00	; 0
 d8c:	22 83       	std	Z+2, r18	; 0x02
 d8e:	33 83       	std	Z+3, r19	; 0x03
	userQueue[numConfig].i_ValveA = 140;
 d90:	01 8b       	std	Z+17, r16	; 0x11
 d92:	12 8b       	std	Z+18, r17	; 0x12
	userQueue[numConfig].i_ValveB = 155; // Buffer tube should be HOT
 d94:	a3 8b       	std	Z+19, r26	; 0x13
 d96:	b4 8b       	std	Z+20, r27	; 0x14
	userQueue[numConfig].auxVol = 0;
 d98:	16 82       	std	Z+6, r1	; 0x06
 d9a:	17 82       	std	Z+7, r1	; 0x07
	userQueue[numConfig].hphVol = 0;
 d9c:	10 86       	std	Z+8, r1	; 0x08
 d9e:	11 86       	std	Z+9, r1	; 0x09
	userQueue[numConfig].volume = 50;
 da0:	44 82       	std	Z+4, r4	; 0x04
 da2:	55 82       	std	Z+5, r5	; 0x05
	userQueue[numConfig].v_Valve = 180;
 da4:	a5 8a       	std	Z+21, r10	; 0x15
 da6:	b6 8a       	std	Z+22, r11	; 0x16
	numConfig++;
 da8:	02 96       	adiw	r24, 0x02	; 2
 daa:	80 93 5c 25 	sts	0x255C, r24
 dae:	90 93 5d 25 	sts	0x255D, r25
	
	init();
 db2:	0e 94 35 01 	call	0x26a	; 0x26a <_Z4initv>
	initUSART();
 db6:	0e 94 77 01 	call	0x2ee	; 0x2ee <_Z9initUSARTv>
	initLCD();
 dba:	0e 94 26 02 	call	0x44c	; 0x44c <_Z7initLCDv>
	
	PORTB.OUTSET = 0b00010000; // Turn on Both Relays
 dbe:	e0 e2       	ldi	r30, 0x20	; 32
 dc0:	f6 e0       	ldi	r31, 0x06	; 6
 dc2:	80 e1       	ldi	r24, 0x10	; 16
 dc4:	85 83       	std	Z+5, r24	; 0x05
	PORTB.OUTSET = 0b00000010; // Turn on Both Relays
 dc6:	82 e0       	ldi	r24, 0x02	; 2
 dc8:	85 83       	std	Z+5, r24	; 0x05
	
	short int qPos[11] = {0,0,0,0,0,0,0,0,0,0,0};
 dca:	fe 01       	movw	r30, r28
 dcc:	31 96       	adiw	r30, 0x01	; 1
 dce:	86 e1       	ldi	r24, 0x16	; 22
 dd0:	df 01       	movw	r26, r30
 dd2:	1d 92       	st	X+, r1
 dd4:	8a 95       	dec	r24
 dd6:	e9 f7       	brne	.-6      	; 0xdd2 <main+0x118>
	short int pos = 0;
	short int enc = 0;

	
	short int BKCOL = BLACK;
	fillBox(0, 0, 320, 240, BKCOL);
 dd8:	00 e0       	ldi	r16, 0x00	; 0
 dda:	10 e0       	ldi	r17, 0x00	; 0
 ddc:	20 ef       	ldi	r18, 0xF0	; 240
 dde:	30 e0       	ldi	r19, 0x00	; 0
 de0:	40 e4       	ldi	r20, 0x40	; 64
 de2:	51 e0       	ldi	r21, 0x01	; 1
 de4:	60 e0       	ldi	r22, 0x00	; 0
 de6:	70 e0       	ldi	r23, 0x00	; 0
 de8:	80 e0       	ldi	r24, 0x00	; 0
 dea:	90 e0       	ldi	r25, 0x00	; 0
 dec:	0e 94 c1 05 	call	0xb82	; 0xb82 <_Z7fillBoxsssss>
	drawDisplay('1');
 df0:	81 e3       	ldi	r24, 0x31	; 49
 df2:	0e 94 aa 04 	call	0x954	; 0x954 <_Z11drawDisplayh>
	PORTB.OUTSET = 0b00010000; // Turn on Both Relays
	PORTB.OUTSET = 0b00000010; // Turn on Both Relays
	
	short int qPos[11] = {0,0,0,0,0,0,0,0,0,0,0};
	short int pos = 0;
	short int enc = 0;
 df6:	61 2c       	mov	r6, r1
 df8:	71 2c       	mov	r7, r1
	while (1)
	{
		//sendStr("A      B000000C", 2);
		//sendChar(0xff, 2);
		//_delay_ms(250);
		if(USARTE1_STATUS & USART_RXCIF_bm) // If there is unread data from UI controller
 dfa:	0f 2e       	mov	r0, r31
 dfc:	f1 eb       	ldi	r31, 0xB1	; 177
 dfe:	cf 2e       	mov	r12, r31
 e00:	fa e0       	ldi	r31, 0x0A	; 10
 e02:	df 2e       	mov	r13, r31
 e04:	f0 2d       	mov	r31, r0
 e06:	5e 01       	movw	r10, r28
 e08:	bb e0       	ldi	r27, 0x0B	; 11
 e0a:	ab 0e       	add	r10, r27
 e0c:	b1 1c       	adc	r11, r1
 e0e:	4e 01       	movw	r8, r28
 e10:	e5 e1       	ldi	r30, 0x15	; 21
 e12:	8e 0e       	add	r8, r30
 e14:	91 1c       	adc	r9, r1
 e16:	7e 01       	movw	r14, r28
 e18:	f4 e2       	ldi	r31, 0x24	; 36
 e1a:	ef 0e       	add	r14, r31
 e1c:	f1 1c       	adc	r15, r1
			int x_left= 0;
			int x_right = 0;
			
			if(enc<5){
				y_top = 51;
				y_bot = 114;
 e1e:	0f 2e       	mov	r0, r31
 e20:	f2 e7       	ldi	r31, 0x72	; 114
 e22:	4f 2e       	mov	r4, r31
 e24:	f0 2d       	mov	r31, r0
 e26:	51 2c       	mov	r5, r1
			}
			else{
				y_top = 160;
				y_bot = 223;
 e28:	31 2c       	mov	r3, r1
			if(enc<5){
				y_top = 51;
				y_bot = 114;
			}
			else{
				y_top = 160;
 e2a:	21 2c       	mov	r2, r1
	while (1)
	{
		//sendStr("A      B000000C", 2);
		//sendChar(0xff, 2);
		//_delay_ms(250);
		if(USARTE1_STATUS & USART_RXCIF_bm) // If there is unread data from UI controller
 e2c:	d6 01       	movw	r26, r12
 e2e:	8c 91       	ld	r24, X
 e30:	88 23       	and	r24, r24
 e32:	e4 f7       	brge	.-8      	; 0xe2c <main+0x172>
		{
			char c = getByte(3);
 e34:	83 e0       	ldi	r24, 0x03	; 3
 e36:	90 e0       	ldi	r25, 0x00	; 0
 e38:	0e 94 be 01 	call	0x37c	; 0x37c <_Z7getBytei>
			char s[15];
			if (c >= '0' && c<='9'){
 e3c:	90 ed       	ldi	r25, 0xD0	; 208
 e3e:	98 0f       	add	r25, r24
 e40:	9a 30       	cpi	r25, 0x0A	; 10
 e42:	28 f4       	brcc	.+10     	; 0xe4e <main+0x194>
				enc = (int)(c-'0');
 e44:	68 2e       	mov	r6, r24
 e46:	71 2c       	mov	r7, r1
 e48:	b0 e3       	ldi	r27, 0x30	; 48
 e4a:	6b 1a       	sub	r6, r27
 e4c:	71 08       	sbc	r7, r1
			}
			if(c == '+'){
 e4e:	8b 32       	cpi	r24, 0x2B	; 43
 e50:	a1 f4       	brne	.+40     	; 0xe7a <main+0x1c0>
				qPos[enc] = min(qPos[enc]+1, 63);
 e52:	f3 01       	movw	r30, r6
 e54:	ee 0f       	add	r30, r30
 e56:	ff 1f       	adc	r31, r31
 e58:	81 e0       	ldi	r24, 0x01	; 1
 e5a:	90 e0       	ldi	r25, 0x00	; 0
 e5c:	8c 0f       	add	r24, r28
 e5e:	9d 1f       	adc	r25, r29
 e60:	e8 0f       	add	r30, r24
 e62:	f9 1f       	adc	r31, r25
 e64:	80 81       	ld	r24, Z
 e66:	91 81       	ldd	r25, Z+1	; 0x01
 e68:	01 96       	adiw	r24, 0x01	; 1
 e6a:	80 34       	cpi	r24, 0x40	; 64
 e6c:	91 05       	cpc	r25, r1
 e6e:	14 f0       	brlt	.+4      	; 0xe74 <main+0x1ba>
 e70:	8f e3       	ldi	r24, 0x3F	; 63
 e72:	90 e0       	ldi	r25, 0x00	; 0
 e74:	80 83       	st	Z, r24
 e76:	91 83       	std	Z+1, r25	; 0x01
 e78:	13 c0       	rjmp	.+38     	; 0xea0 <main+0x1e6>
			}
			else if(c == '-'){
 e7a:	8d 32       	cpi	r24, 0x2D	; 45
 e7c:	89 f4       	brne	.+34     	; 0xea0 <main+0x1e6>
				qPos[enc] = max(qPos[enc]-1, 0);
 e7e:	f3 01       	movw	r30, r6
 e80:	ee 0f       	add	r30, r30
 e82:	ff 1f       	adc	r31, r31
 e84:	a1 e0       	ldi	r26, 0x01	; 1
 e86:	b0 e0       	ldi	r27, 0x00	; 0
 e88:	ac 0f       	add	r26, r28
 e8a:	bd 1f       	adc	r27, r29
 e8c:	ea 0f       	add	r30, r26
 e8e:	fb 1f       	adc	r31, r27
 e90:	80 81       	ld	r24, Z
 e92:	91 81       	ldd	r25, Z+1	; 0x01
 e94:	01 97       	sbiw	r24, 0x01	; 1
 e96:	12 f4       	brpl	.+4      	; 0xe9c <main+0x1e2>
 e98:	80 e0       	ldi	r24, 0x00	; 0
 e9a:	90 e0       	ldi	r25, 0x00	; 0
 e9c:	80 83       	st	Z, r24
 e9e:	91 83       	std	Z+1, r25	; 0x01
			}
			s[0] = 'A';
 ea0:	81 e4       	ldi	r24, 0x41	; 65
 ea2:	8f 8b       	std	Y+23, r24	; 0x17
 ea4:	fe 01       	movw	r30, r28
 ea6:	31 96       	adiw	r30, 0x01	; 1
 ea8:	de 01       	movw	r26, r28
 eaa:	58 96       	adiw	r26, 0x18	; 24
			for(int i=0; i<5; i++)
				s[i+1] = qPos[i];
 eac:	80 81       	ld	r24, Z
 eae:	32 96       	adiw	r30, 0x02	; 2
 eb0:	8d 93       	st	X+, r24
			}
			else if(c == '-'){
				qPos[enc] = max(qPos[enc]-1, 0);
			}
			s[0] = 'A';
			for(int i=0; i<5; i++)
 eb2:	ea 15       	cp	r30, r10
 eb4:	fb 05       	cpc	r31, r11
 eb6:	d1 f7       	brne	.-12     	; 0xeac <main+0x1f2>
				s[i+1] = qPos[i];
			s[6] = 'B';
 eb8:	82 e4       	ldi	r24, 0x42	; 66
 eba:	8d 8f       	std	Y+29, r24	; 0x1d
 ebc:	f5 01       	movw	r30, r10
 ebe:	de 01       	movw	r26, r28
 ec0:	5e 96       	adiw	r26, 0x1e	; 30
			for(int i=5; i<10; i++)
				s[i+2] = qPos[i];
 ec2:	80 81       	ld	r24, Z
 ec4:	32 96       	adiw	r30, 0x02	; 2
 ec6:	8d 93       	st	X+, r24
			}
			s[0] = 'A';
			for(int i=0; i<5; i++)
				s[i+1] = qPos[i];
			s[6] = 'B';
			for(int i=5; i<10; i++)
 ec8:	e8 15       	cp	r30, r8
 eca:	f9 05       	cpc	r31, r9
 ecc:	d1 f7       	brne	.-12     	; 0xec2 <main+0x208>
				s[i+2] = qPos[i];
			s[12] = 'C';
 ece:	83 e4       	ldi	r24, 0x43	; 67
 ed0:	8b a3       	std	Y+35, r24	; 0x23
 ed2:	8e 01       	movw	r16, r28
 ed4:	09 5e       	subi	r16, 0xE9	; 233
 ed6:	1f 4f       	sbci	r17, 0xFF	; 255
			for(int i=0; i<13; i++)
				sendChar(s[i], 2);
 ed8:	62 e0       	ldi	r22, 0x02	; 2
 eda:	70 e0       	ldi	r23, 0x00	; 0
 edc:	f8 01       	movw	r30, r16
 ede:	81 91       	ld	r24, Z+
 ee0:	8f 01       	movw	r16, r30
 ee2:	0e 94 90 01 	call	0x320	; 0x320 <_Z8sendCharci>
				s[i+1] = qPos[i];
			s[6] = 'B';
			for(int i=5; i<10; i++)
				s[i+2] = qPos[i];
			s[12] = 'C';
			for(int i=0; i<13; i++)
 ee6:	0e 15       	cp	r16, r14
 ee8:	1f 05       	cpc	r17, r15
 eea:	b1 f7       	brne	.-20     	; 0xed8 <main+0x21e>
			int y_top = 0;
			int y_bot = 0;
			int x_left= 0;
			int x_right = 0;
			
			if(enc<5){
 eec:	f5 e0       	ldi	r31, 0x05	; 5
 eee:	6f 16       	cp	r6, r31
 ef0:	71 04       	cpc	r7, r1
 ef2:	2c f0       	brlt	.+10     	; 0xefe <main+0x244>
				y_top = 51;
				y_bot = 114;
			}
			else{
				y_top = 160;
				y_bot = 223;
 ef4:	2f ed       	ldi	r18, 0xDF	; 223
 ef6:	33 2d       	mov	r19, r3
			if(enc<5){
				y_top = 51;
				y_bot = 114;
			}
			else{
				y_top = 160;
 ef8:	40 ea       	ldi	r20, 0xA0	; 160
 efa:	52 2d       	mov	r21, r2
 efc:	04 c0       	rjmp	.+8      	; 0xf06 <main+0x24c>
			int x_left= 0;
			int x_right = 0;
			
			if(enc<5){
				y_top = 51;
				y_bot = 114;
 efe:	24 2d       	mov	r18, r4
 f00:	35 2d       	mov	r19, r5
			int y_bot = 0;
			int x_left= 0;
			int x_right = 0;
			
			if(enc<5){
				y_top = 51;
 f02:	43 e3       	ldi	r20, 0x33	; 51
 f04:	50 e0       	ldi	r21, 0x00	; 0
			drawBox(140, 159, 180, 224, black);	// Low level
			drawBox(205, 159, 245, 224, black);	// Mid level
			drawBox(270, 159, 310, 224, black);	// High level
			*/
			
			switch(enc) {
 f06:	6a e0       	ldi	r22, 0x0A	; 10
 f08:	66 16       	cp	r6, r22
 f0a:	71 04       	cpc	r7, r1
 f0c:	00 f5       	brcc	.+64     	; 0xf4e <main+0x294>
 f0e:	f3 01       	movw	r30, r6
 f10:	88 27       	eor	r24, r24
 f12:	e2 50       	subi	r30, 0x02	; 2
 f14:	ff 4f       	sbci	r31, 0xFF	; 255
 f16:	8f 4f       	sbci	r24, 0xFF	; 255
 f18:	0c 94 b9 07 	jmp	0xf72	; 0xf72 <__tablejump2__>
				case 0:
				case 5:
					x_left = 271;
					x_right = 309;
 f1c:	65 e3       	ldi	r22, 0x35	; 53
 f1e:	71 e0       	ldi	r23, 0x01	; 1
			*/
			
			switch(enc) {
				case 0:
				case 5:
					x_left = 271;
 f20:	8f e0       	ldi	r24, 0x0F	; 15
 f22:	91 e0       	ldi	r25, 0x01	; 1
 f24:	18 c0       	rjmp	.+48     	; 0xf56 <main+0x29c>
					x_right = 309;
					break;
				case 1:
				case 6:
					x_left = 206;
					x_right = 244;
 f26:	64 ef       	ldi	r22, 0xF4	; 244
 f28:	70 e0       	ldi	r23, 0x00	; 0
					x_left = 271;
					x_right = 309;
					break;
				case 1:
				case 6:
					x_left = 206;
 f2a:	8e ec       	ldi	r24, 0xCE	; 206
 f2c:	90 e0       	ldi	r25, 0x00	; 0
					x_right = 244;
					break;
 f2e:	13 c0       	rjmp	.+38     	; 0xf56 <main+0x29c>
				case 2:
				case 7:
					x_left = 141;
					x_right = 179;
 f30:	63 eb       	ldi	r22, 0xB3	; 179
 f32:	70 e0       	ldi	r23, 0x00	; 0
					x_left = 206;
					x_right = 244;
					break;
				case 2:
				case 7:
					x_left = 141;
 f34:	8d e8       	ldi	r24, 0x8D	; 141
 f36:	90 e0       	ldi	r25, 0x00	; 0
					x_right = 179;
					break;
 f38:	0e c0       	rjmp	.+28     	; 0xf56 <main+0x29c>
				case 3:
				case 8:
					x_left = 76;
					x_right = 114;
 f3a:	64 2d       	mov	r22, r4
 f3c:	75 2d       	mov	r23, r5
					x_left = 141;
					x_right = 179;
					break;
				case 3:
				case 8:
					x_left = 76;
 f3e:	8c e4       	ldi	r24, 0x4C	; 76
 f40:	90 e0       	ldi	r25, 0x00	; 0
					x_right = 114;
					break;
 f42:	09 c0       	rjmp	.+18     	; 0xf56 <main+0x29c>
				case 4:
				case 9:
					x_left = 11;
					x_right = 49;
 f44:	61 e3       	ldi	r22, 0x31	; 49
 f46:	70 e0       	ldi	r23, 0x00	; 0
					x_left = 76;
					x_right = 114;
					break;
				case 4:
				case 9:
					x_left = 11;
 f48:	8b e0       	ldi	r24, 0x0B	; 11
 f4a:	90 e0       	ldi	r25, 0x00	; 0
					x_right = 49;
					break;
 f4c:	04 c0       	rjmp	.+8      	; 0xf56 <main+0x29c>
			//else if (val < 0) encoder_val = 0;
			//else encoder_val = val;
			int y_top = 0;
			int y_bot = 0;
			int x_left= 0;
			int x_right = 0;
 f4e:	60 e0       	ldi	r22, 0x00	; 0
 f50:	70 e0       	ldi	r23, 0x00	; 0
			//if (val > 255) encoder_val = 255;
			//else if (val < 0) encoder_val = 0;
			//else encoder_val = val;
			int y_top = 0;
			int y_bot = 0;
			int x_left= 0;
 f52:	80 e0       	ldi	r24, 0x00	; 0
 f54:	90 e0       	ldi	r25, 0x00	; 0
					break;
				default:
					break;
			}
				
			drawLevel(x_left, x_right, y_top, y_bot, qPos[enc]);
 f56:	f3 01       	movw	r30, r6
 f58:	ee 0f       	add	r30, r30
 f5a:	ff 1f       	adc	r31, r31
 f5c:	a1 e0       	ldi	r26, 0x01	; 1
 f5e:	b0 e0       	ldi	r27, 0x00	; 0
 f60:	ac 0f       	add	r26, r28
 f62:	bd 1f       	adc	r27, r29
 f64:	ea 0f       	add	r30, r26
 f66:	fb 1f       	adc	r31, r27
 f68:	00 81       	ld	r16, Z
 f6a:	11 81       	ldd	r17, Z+1	; 0x01
 f6c:	0e 94 2a 06 	call	0xc54	; 0xc54 <_Z9drawLevelsssss>
 f70:	5d cf       	rjmp	.-326    	; 0xe2c <main+0x172>

00000f72 <__tablejump2__>:
 f72:	ee 0f       	add	r30, r30
 f74:	ff 1f       	adc	r31, r31
 f76:	88 1f       	adc	r24, r24
 f78:	8b bf       	out	0x3b, r24	; 59
 f7a:	07 90       	elpm	r0, Z+
 f7c:	f6 91       	elpm	r31, Z
 f7e:	e0 2d       	mov	r30, r0
 f80:	19 94       	eijmp

00000f82 <_exit>:
 f82:	f8 94       	cli

00000f84 <__stop_program>:
 f84:	ff cf       	rjmp	.-2      	; 0xf84 <__stop_program>
